BL51 BANKED LINKER/LOCATER V6.22.2.0                                                    07/15/2022  09:34:05  PAGE 1


BL51 BANKED LINKER/LOCATER V6.22.2.0, INVOKED BY:
C:\KEIL_V5\C51\BIN\BL51.EXE .\Output\common.obj, .\Output\crt.obj, .\Output\flash.obj, .\Output\function_key.obj, .\Outp
>> ut\hal.obj, .\Output\main.obj, .\Output\ram.obj, .\Output\rom.obj, .\Output\special.obj, .\Output\sysclk.obj, .\Outpu
>> t\DATA.obj TO .\Output\demo PRINT (.\Listing\demo.m51) RAMSIZE (256)




PROGRAM RECURSIONS REMOVED FROM CALL TREE
=========================================
+--> ?CO?ROM
|  | ?PR?KEY_TVPOWER?FUNCTION_KEY
|  | ?PR?OTHER_TV_KEYS_COMMON?FUNCTION_KEY
|  | ?PR?_BATCH_SS_LG_COMMON?FUNCTION_KEY
|  | ?PR?_PULSEOUT_NFRAME?FUNCTION_KEY
|  | ?PR?MY_SUB?COMMON
|  | ?PR?SEND_UR_READY?COMMON
|  | ?PR?_LOADCUSTDATAWITHFORMAT?COMMON
<--+ ?PR?GET_MAP_POINTER?COMMON


+--> ?CO?ROM
|  | ?PR?KEY_TVPOWER?FUNCTION_KEY
|  | ?PR?OTHER_TV_KEYS_COMMON?FUNCTION_KEY
|  | ?PR?_BATCH_SS_LG_COMMON?FUNCTION_KEY
|  | ?PR?_PULSEOUT_NFRAME?FUNCTION_KEY
|  | ?PR?MY_SUB?COMMON
|  | ?PR?SEND_UR_READY?COMMON
<--+ ?PR?_LOADCUSTDATAWITHFORMAT?COMMON


+--> ?CO?ROM
|  | ?PR?KEY_TVPOWER?FUNCTION_KEY
|  | ?PR?OTHER_TV_KEYS_COMMON?FUNCTION_KEY
|  | ?PR?_BATCH_SS_LG_COMMON?FUNCTION_KEY
|  | ?PR?_PULSEOUT_NFRAME?FUNCTION_KEY
|  | ?PR?MY_SUB?COMMON
<--+ ?PR?SEND_UR_READY?COMMON


+--> ?PR?_GETKEY?COMMON
|  | ?PR?_CODECVT?COMMON
|  | ?CO?ROM
|  | ?PR?KEY_TVPOWER?FUNCTION_KEY
|  | ?PR?OTHER_TV_KEYS_COMMON?FUNCTION_KEY
<--+ ?PR?GETSAMEKEY_WAIT?FUNCTION_KEY


+--> ?PR?_GETKEY?COMMON
|  | ?PR?_CODECVT?COMMON
|  | ?CO?ROM
|  | ?PR?KEY_ALLPOWER?FUNCTION_KEY
<--+ ?PR?_PULSEOUT_ABOVE_NFRAME?FUNCTION_KEY



MEMORY MODEL: SMALL

BL51 BANKED LINKER/LOCATER V6.22.2.0                                                  07/15/2022  09:34:05  PAGE 2



INPUT MODULES INCLUDED:
  .\Output\common.obj (COMMON)
  .\Output\crt.obj (CRT)
  .\Output\flash.obj (FLASH)
  .\Output\function_key.obj (FUNCTION_KEY)
  .\Output\hal.obj (HAL)
  .\Output\main.obj (MAIN)
  .\Output\ram.obj (RAM)
  .\Output\rom.obj (ROM)
  .\Output\special.obj (SPECIAL)
  .\Output\sysclk.obj (SYSCLK)
  .\Output\DATA.obj (DATA)
  C:\KEIL_V5\C51\LIB\C51S.LIB (?C_STARTUP)
  C:\KEIL_V5\C51\LIB\C51S.LIB (?C?CLDPTR)
  C:\KEIL_V5\C51\LIB\C51S.LIB (?C?CLDOPTR)
  C:\KEIL_V5\C51\LIB\C51S.LIB (?C?CSTPTR)
  C:\KEIL_V5\C51\LIB\C51S.LIB (?C?CSTOPTR)
  C:\KEIL_V5\C51\LIB\C51S.LIB (?C?IMUL)
  C:\KEIL_V5\C51\LIB\C51S.LIB (?C?UIDIV)
  C:\KEIL_V5\C51\LIB\C51S.LIB (?C?SIDIV)
  C:\KEIL_V5\C51\LIB\C51S.LIB (?C?IILDX)
  C:\KEIL_V5\C51\LIB\C51S.LIB (?C?ILDPTR)
  C:\KEIL_V5\C51\LIB\C51S.LIB (?C?IILDPTR)
  C:\KEIL_V5\C51\LIB\C51S.LIB (?C?ISTPTR)
  C:\KEIL_V5\C51\LIB\C51S.LIB (?C?LMUL)
  C:\KEIL_V5\C51\LIB\C51S.LIB (?C?ULDIV)
  C:\KEIL_V5\C51\LIB\C51S.LIB (?C?ULCMP)
  C:\KEIL_V5\C51\LIB\C51S.LIB (?C?ULSHR)
  C:\KEIL_V5\C51\LIB\C51S.LIB (?C?LSHL)
  C:\KEIL_V5\C51\LIB\C51S.LIB (?C?LLDPTR)
  C:\KEIL_V5\C51\LIB\C51S.LIB (?C?LSTPTR)
  C:\KEIL_V5\C51\LIB\C51S.LIB (?C?LSTXDATA)
  C:\KEIL_V5\C51\LIB\C51S.LIB (?C?LCASE)
  C:\KEIL_V5\C51\LIB\C51S.LIB (?C?ICALL)
  C:\KEIL_V5\C51\LIB\C51S.LIB (?C_INIT)
  C:\KEIL_V5\C51\LIB\C51S.LIB (?C?LLDIDATA)
  C:\KEIL_V5\C51\LIB\C51S.LIB (?C?LLDXDATA)
  C:\KEIL_V5\C51\LIB\C51S.LIB (?C?LLDPDATA)
  C:\KEIL_V5\C51\LIB\C51S.LIB (?C?LLDCODE)
  C:\KEIL_V5\C51\LIB\C51S.LIB (?C?LSTIDATA)
  C:\KEIL_V5\C51\LIB\C51S.LIB (?C?LSTPDATA)


LINK MAP OF MODULE:  .\Output\demo (COMMON)


            TYPE    BASE      LENGTH    RELOCATION   SEGMENT NAME
            -----------------------------------------------------

            * * * * * * *   D A T A   M E M O R Y   * * * * * * *
            REG     0000H     0008H     ABSOLUTE     "REG BANK 0"
            REG     0008H     0008H     ABSOLUTE     "REG BANK 1"
            DATA    0010H     0002H     UNIT         ?DT?FUNCTION_KEY
                    0012H     000EH                  *** GAP ***
            BIT     0020H.0   0000H.2   UNIT         _BIT_GROUP_
                    0020H.2   0000H.6                *** GAP ***
BL51 BANKED LINKER/LOCATER V6.22.2.0                                                  07/15/2022  09:34:05  PAGE 3


            DATA    0021H     003DH     UNIT         _DATA_GROUP_
            IDATA   005EH     0033H     UNIT         ?ID?RAM
            IDATA   0091H     0001H     UNIT         ?STACK

            * * * * * * *  X D A T A   M E M O R Y  * * * * * * *
            XDATA   0000H     02FFH     UNIT         ?XD?RAM

            * * * * * * *   C O D E   M E M O R Y   * * * * * * *
            CODE    0000H     0003H     ABSOLUTE     
            CODE    0003H     0003H     ABSOLUTE     
            CODE    0006H     0005H     UNIT         ?PR?KEY_0?FUNCTION_KEY
            CODE    000BH     0003H     ABSOLUTE     
            CODE    000EH     0005H     UNIT         ?PR?KEY_1?FUNCTION_KEY
            CODE    0013H     0003H     ABSOLUTE     
            CODE    0016H     0005H     UNIT         ?PR?KEY_2?FUNCTION_KEY
            CODE    001BH     0003H     ABSOLUTE     
            CODE    001EH     0005H     UNIT         ?PR?KEY_3?FUNCTION_KEY
            CODE    0023H     0003H     ABSOLUTE     
            CODE    0026H     0005H     UNIT         ?PR?KEY_4?FUNCTION_KEY
            CODE    002BH     0003H     ABSOLUTE     
            CODE    002EH     0005H     UNIT         ?PR?KEY_5?FUNCTION_KEY
            CODE    0033H     0003H     ABSOLUTE     
            CODE    0036H     0005H     UNIT         ?PR?KEY_6?FUNCTION_KEY
            CODE    003BH     0003H     ABSOLUTE     
            CODE    003EH     000DH     UNIT         ?PR?_CRT_ONOFF?CRT
            CODE    004BH     0003H     ABSOLUTE     
            CODE    004EH     000DH     UNIT         ?PR?_CRT_MODESEL?CRT
            CODE    005BH     0003H     ABSOLUTE     
            CODE    005EH     0005H     UNIT         ?PR?KEY_7?FUNCTION_KEY
            CODE    0063H     0003H     ABSOLUTE     
            CODE    0066H     000DH     UNIT         ?PR?_CRT_INSEL?CRT
            CODE    0073H     0003H     ABSOLUTE     
            CODE    0076H     0005H     UNIT         ?PR?KEY_8?FUNCTION_KEY
            CODE    007BH     0003H     ABSOLUTE     
            CODE    007EH     0005H     UNIT         ?PR?KEY_9?FUNCTION_KEY
            CODE    0083H     0003H     ABSOLUTE     
            CODE    0086H     001DH     UNIT         ?PR?STB_IROUTCOMMON?FUNCTION_KEY
            CODE    00A3H     0003H     ABSOLUTE     
            CODE    00A6H     2088H     UNIT         CODE_SEG
            CODE    212EH     0CA4H     UNIT         ?PR?FUNC_SPECIAL_F0?SPECIAL
            CODE    2DD2H     054BH     UNIT         ?PR?TIMER2_INTERRUPT?MAIN
            CODE    331DH     0510H     UNIT         ?PR?FUNC_SPECIAL_F5?SPECIAL
            CODE    382DH     0486H     UNIT         ?PR?_FILLBITSTREAMFROMOUTORDER?COMMON
            CODE    3CB3H     03D7H     UNIT         ?PR?FUNC_SPECIAL_E5?SPECIAL
            CODE    408AH     03D5H     UNIT         ?C?LIB_CODE
            CODE    445FH     039FH     UNIT         ?PR?SEND_UR_READY?COMMON
            CODE    47FEH     035BH     UNIT         ?PR?_LOADCUSTDATAWITHFORMAT?COMMON
            CODE    4B59H     0335H     UNIT         ?PR?RSAPPMAIN?FUNCTION_KEY
            CODE    4E8EH     032EH     UNIT         ?PR?FUNC_SPECIAL_F4?SPECIAL
            CODE    51BCH     032AH     UNIT         ?PR?_LOADFORMAT?COMMON
            CODE    54E6H     01FBH     UNIT         ?PR?_AUTO_SEARCH_1?COMMON
            CODE    56E1H     016DH     UNIT         ?PR?FUNC_SPECIAL_F2?SPECIAL
            CODE    584EH     0169H     UNIT         ?PR?CARRIER_SET?COMMON
            CODE    59B7H     0156H     UNIT         ?PR?SEND_UR?COMMON
            CODE    5B0DH     0134H     UNIT         ?PR?_SETBITSTREAMFROMNIBBLE?COMMON
            CODE    5C41H     012FH     UNIT         ?PR?_GETKEY?COMMON
            CODE    5D70H     0127H     UNIT         ?PR?_DIGITKEYS_COMMON_SETMODE?FUNCTION_KEY
BL51 BANKED LINKER/LOCATER V6.22.2.0                                                  07/15/2022  09:34:05  PAGE 4


            CODE    5E97H     0126H     UNIT         ?CO?ROM
            CODE    5FBDH     010DH     UNIT         ?PR?OTHER_TV_KEYS_COMMON?FUNCTION_KEY
            CODE    60CAH     00F4H     UNIT         ?PR?CODE_READ_OUT?COMMON
            CODE    61BEH     00F0H     UNIT         ?PR?_NECDATAQUICKLYLOAD_FILLPATTERN?FUNCTION_KEY
            CODE    62AEH     00B9H     UNIT         ?PR?_FLASH_PAGE_WRITE?FLASH
            CODE    6367H     00B2H     UNIT         ?PR?_CHECK_KEY_INSETMODE?COMMON
            CODE    6419H     00B1H     UNIT         ?PR?PREV_SEARCHNO_FIND_INAUTOSEARCH?COMMON
            CODE    64CAH     00ADH     UNIT         ?PR?OTHER_KEYS_COMMON?FUNCTION_KEY
            CODE    6577H     00A5H     UNIT         ?PR?KEY_ALLPOWER?FUNCTION_KEY
            CODE    661CH     009AH     UNIT         ?PR?FACTORY_TEST_PROCESS?FUNCTION_KEY
            CODE    66B6H     0098H     UNIT         ?PR?_GET1CODEFROM3BUF?COMMON
            CODE    674EH     0095H     UNIT         ?PR?RESET_DEFINE?HAL
            CODE    67E3H     0093H     UNIT         ?PR?CALCULATEENVELOPE?COMMON
            CODE    6876H     008CH     UNIT         ?PR?_CONVERT_CD?COMMON
            CODE    6902H     008CH     UNIT         ?PR?SETTING_MODE?COMMON
            CODE    698EH     008CH     UNIT         ?C_C51STARTUP
            CODE    6A1AH     007FH     UNIT         ?PR?_BATCH_SS_LG_COMMON?FUNCTION_KEY
            CODE    6A99H     007FH     UNIT         ?PR?TIMER0_INTERRUPT?MAIN
            CODE    6B18H     007EH     UNIT         ?PR?AVSHIFTMODE_KEYS_COMMON?FUNCTION_KEY
            CODE    6B96H     007DH     UNIT         ?PR?RAM_CHECK?HAL
            CODE    6C13H     0073H     UNIT         ?PR?_FLASH_PAGE_ERASE?FLASH
            CODE    6C86H     006FH     UNIT         ?PR?_CODECVT?COMMON
            CODE    6CF5H     006DH     UNIT         ?PR?TIMER1_INTERRUPT?MAIN
            CODE    6D62H     006CH     UNIT         ?PR?_GETCODEADDRESS_SET?COMMON
            CODE    6DCEH     006CH     UNIT         ?PR?_IROUT_N?FUNCTION_KEY
            CODE    6E3AH     0068H     UNIT         ?PR?GET_MAP_POINTER?COMMON
            CODE    6EA2H     0066H     UNIT         ?PR?_CHECK_KEY_4KEYNOSTOP?FUNCTION_KEY
            CODE    6F08H     0062H     UNIT         ?PR?_DELAYBY10US?COMMON
            CODE    6F6AH     0061H     UNIT         ?PR?PULSE_STOP?COMMON
            CODE    6FCBH     0061H     UNIT         ?PR?_PULSEOUT_ABOVE_NFRAME?FUNCTION_KEY
            CODE    702CH     0061H     UNIT         ?PR?FUNCTIONKEYPROCESS?FUNCTION_KEY
            CODE    708DH     0060H     UNIT         ?PR?_PANASONIC_TV_CHECK?COMMON
            CODE    70EDH     0056H     UNIT         ?PR?STOP_DEFINE?HAL
            CODE    7143H     0053H     UNIT         ?PR?NEXT_SEARCHNO_FIND_INAUTOSEARCH?COMMON
            CODE    7196H     0053H     UNIT         ?PR?_CHECK_KEY_3KEYNOSTOP?FUNCTION_KEY
            CODE    71E9H     0053H     UNIT         ?PR?FUNCTION_SPECIAL_EXT_CALL?SPECIAL
            CODE    723CH     0053H     UNIT         ?PR?CLK_SEL?SYSCLK
            CODE    728FH     0051H     UNIT         ?PR?MY_SUB?COMMON
            CODE    72E0H     004FH     UNIT         ?PR?_DEVICE_LED_INSETUP?COMMON
            CODE    732FH     004DH     UNIT         ?PR?RSAPP_EXITTESTMODEFUNCTION?FUNCTION_KEY
            CODE    737CH     0046H     UNIT         ?PR?FACTORY_VERSION_REPORTING?FUNCTION_KEY
            CODE    73C2H     0044H     UNIT         ?PR?_FORMATNEXTADDRCAL?COMMON
            CODE    7406H     0043H     UNIT         ?PR?_LOW_VOLTAGE_CHECK?COMMON
            CODE    7449H     0040H     UNIT         ?PR?_CHECK_KEY_2KEYNOSTOP?FUNCTION_KEY
            CODE    7489H     003EH     UNIT         ?PR?_DEVICE_LED_BLINK_KEY_CHK?COMMON
            CODE    74C7H     003EH     UNIT         ?PR?AUTO_SEARCH_COMMON?FUNCTION_KEY
            CODE    7505H     003DH     UNIT         ?PR?KEY_INPUT?FUNCTION_KEY
            CODE    7542H     0039H     UNIT         ?PR?_CLK_DIV?SYSCLK
            CODE    757BH     0037H     UNIT         ?PR?_PULSEOUT_NFRAME?FUNCTION_KEY
            CODE    75B2H     0034H     UNIT         ?PR?_SETMODEIN_TIMECHECK?FUNCTION_KEY
            CODE    75E6H     0032H     UNIT         ?PR?_LOADSETNUMBER?COMMON
            CODE    7618H     0032H     UNIT         ?PR?CHKSUM_CAL?FUNCTION_KEY
            CODE    764AH     0031H     UNIT         ?PR?_READFROMFLASH?FLASH
            CODE    767BH     0030H     UNIT         ?PR?_DEVICE_LED_BLINK?COMMON
            CODE    76ABH     002FH     UNIT         ?PR?KEY_TVPOWER?FUNCTION_KEY
            CODE    76DAH     002EH     UNIT         ?PR?WBITSTREAM_CLEAR?COMMON
            CODE    7708H     002CH     UNIT         ?PR?INITPORT?HAL
BL51 BANKED LINKER/LOCATER V6.22.2.0                                                  07/15/2022  09:34:05  PAGE 5


            CODE    7734H     002AH     UNIT         ?PR?_T0_WAIT?COMMON
            CODE    775EH     0028H     UNIT         ?PR?KEY_OK?FUNCTION_KEY
            CODE    7786H     0026H     UNIT         ?PR?GETSAMEKEY_WAIT?FUNCTION_KEY
            CODE    77ACH     0026H     UNIT         ?PR?SYSTEMINIT?HAL
            CODE    77D2H     0026H     UNIT         ?PR?KEYSCAN_INTERRUPT_ON?HAL
            CODE    77F8H     0025H     UNIT         ?PR?_INFORMATION_RW?FLASH
            CODE    781DH     0025H     UNIT         ?PR?KEYSCAN_INTERRUPT_OFF?HAL
            CODE    7842H     0025H     UNIT         ?PR?TIMER2_START?HAL
            CODE    7867H     0024H     UNIT         ?PR?FACTORYDEFAULT?HAL
            CODE    788BH     0023H     UNIT         ?PR?_T0_WAIT_KEYIN_CHK?COMMON
            CODE    78AEH     0022H     UNIT         ?PR?_WRITETOFLASH?FLASH
            CODE    78D0H     001FH     UNIT         ?PR?_DEVICE_LED_ON?COMMON
            CODE    78EFH     001DH     UNIT         ?PR?KEY_TVVOLUP?FUNCTION_KEY
            CODE    790CH     001DH     UNIT         ?PR?KEY_TVVOLDOWN?FUNCTION_KEY
            CODE    7929H     001CH     UNIT         ?PR?KEY_BUF_OLD_CLEAR?COMMON
            CODE    7945H     001CH     UNIT         ?PR?CRT_INIT_IR?HAL
            CODE    7961H     001BH     UNIT         ?PR?GETKEY_SIMPLE?COMMON
            CODE    797CH     001BH     UNIT         ?PR?_DEVICE_LED_OFF?COMMON
            CODE    7997H     001BH     UNIT         ?PR?COMPLETE_URSETUP?FUNCTION_KEY
            CODE    79B2H     001BH     UNIT         ?PR?SPECTIAL_F0_HIGH_ENVELOP?MAIN
            CODE    79CDH     001AH     UNIT         ?PR?RSAPP_ENTERTESTMODEFUNCTION?FUNCTION_KEY
            CODE    79E7H     0018H     UNIT         ?PR?SAVE_TVPOWER?FUNCTION_KEY
            CODE    79FFH     0018H     UNIT         ?PR?SAVE_STBPOWER?FUNCTION_KEY
            CODE    7A17H     0018H     UNIT         ?PR?STOP_MODE?MAIN
            CODE    7A2FH     0016H     UNIT         ?PR?MY_NEWKEYINCOND?COMMON
            CODE    7A45H     0015H     UNIT         ?PR?SAVE_INFORMATION_ALL?FLASH
            CODE    7A5AH     0015H     UNIT         ?PR?COMPLETE_SETMODE?FUNCTION_KEY
            CODE    7A6FH     0014H     UNIT         ?PR?TESTMODE_IROUTCOMMON?FUNCTION_KEY
            CODE    7A83H     0014H     UNIT         ?PR?RETURNNORMAL?FUNCTION_KEY
            CODE    7A97H     0013H     UNIT         ?PR?WDG_SYSTEMRESET?COMMON
            CODE    7AAAH     0013H     UNIT         ?PR?ENVELOPCARRIEROFF?COMMON
            CODE    7ABDH     0013H     UNIT         ?PR?TIMER0_65MSSTART?HAL
            CODE    7AD0H     0012H     UNIT         ?PR?KEY_SEARCH?FUNCTION_KEY
            CODE    7AE2H     0011H     UNIT         ?PR?SETDELTAV?HAL
            CODE    7AF3H     0011H     UNIT         ?PR?TIMER1_1SECSTART?HAL
            CODE    7B04H     000FH     UNIT         ?PR?CRT_REM2P30?CRT
            CODE    7B13H     000EH     UNIT         ?PR?LOW_VOLTAGE_CODEOUT?FUNCTION_KEY
            CODE    7B21H     000EH     UNIT         ?PR?MAIN?MAIN
            CODE    7B2FH     000DH     UNIT         ?PR?_CRT_REMOPS?CRT
            CODE    7B3CH     000DH     UNIT         ?PR?_KEY_COMMON_DIGIT?FUNCTION_KEY
            CODE    7B49H     000DH     UNIT         ?PR?EXTINT_INIT?HAL
            CODE    7B56H     000CH     UNIT         ?PR?WAIT_GETKEY_SIMPLE?COMMON
            CODE    7B62H     000CH     UNIT         ?PR?CLRWDT?HAL
            CODE    7B6EH     000BH     UNIT         ?PR?_SETMODE_STARTTIMEOUT?COMMON
            CODE    7B79H     000BH     UNIT         ?PR?_AVSHIFTMODE_STARTTIMEOUT?COMMON
            CODE    7B84H     000BH     UNIT         ?PR?_CRT_CLKDIV?CRT
            CODE    7B8FH     000BH     UNIT         ?PR?_TICKTIMER_65MSSTART?HAL
            CODE    7B9AH     000AH     UNIT         ?PR?STB_SETTINGCOMMON?FUNCTION_KEY
            CODE    7BA4H     000AH     UNIT         ?PR?_UR_SETTINGCOMMON?FUNCTION_KEY
            CODE    7BAEH     000AH     UNIT         ?PR?IGNOREKEYIN?FUNCTION_KEY
            CODE    7BB8H     0009H     UNIT         ?PR?_TIMER0_AVSHIFTMODE_UPDATE?COMMON
            CODE    7BC1H     0009H     UNIT         ?PR?_TIMER0_65MS16_2_UPDATE?COMMON
            CODE    7BCAH     0008H     UNIT         ?PR?_STUCKKEYTIMER_START?HAL
            CODE    7BD2H     0005H     UNIT         ?C_INITSEG
            CODE    7BD7H     0004H     UNIT         ?PR?SW_SYSTEMRESET?COMMON
            CODE    7BDBH     0003H     UNIT         ?PR?COMPLETE_SETUP_TVPOWER?FUNCTION_KEY
            CODE    7BDEH     0003H     UNIT         ?PR?COMPLETE_SETUP_STBPOWER?FUNCTION_KEY
BL51 BANKED LINKER/LOCATER V6.22.2.0                                                  07/15/2022  09:34:05  PAGE 6


            CODE    7BE1H     0003H     UNIT         ?PR?KEY_CHUP?FUNCTION_KEY
            CODE    7BE4H     0003H     UNIT         ?PR?KEY_CHDOWN?FUNCTION_KEY
            CODE    7BE7H     0003H     UNIT         ?PR?KEY_MENU?FUNCTION_KEY
            CODE    7BEAH     0003H     UNIT         ?PR?KEY_NAVI_UP?FUNCTION_KEY
            CODE    7BEDH     0003H     UNIT         ?PR?KEY_NAVI_DOWN?FUNCTION_KEY
            CODE    7BF0H     0003H     UNIT         ?PR?KEY_NAVI_LEFT?FUNCTION_KEY
            CODE    7BF3H     0003H     UNIT         ?PR?KEY_NAVI_RIGHT?FUNCTION_KEY
            CODE    7BF6H     0003H     UNIT         ?PR?KEY_STBPOWER?FUNCTION_KEY
            CODE    7BF9H     0003H     UNIT         ?PR?KEY_VOLUP?FUNCTION_KEY
            CODE    7BFCH     0003H     UNIT         ?PR?KEY_VOLDOWN?FUNCTION_KEY
            CODE    7BFFH     0003H     UNIT         ?PR?KEY_MUTE?FUNCTION_KEY
            CODE    7C02H     0003H     UNIT         ?PR?KEY_MOVIE?FUNCTION_KEY
            CODE    7C05H     0003H     UNIT         ?PR?KEY_REVIEW?FUNCTION_KEY
            CODE    7C08H     0003H     UNIT         ?PR?KEY_CHGUIDE?FUNCTION_KEY
            CODE    7C0BH     0003H     UNIT         ?PR?KEY_OPTION?FUNCTION_KEY
            CODE    7C0EH     0003H     UNIT         ?PR?KEY_BACK?FUNCTION_KEY
            CODE    7C11H     0003H     UNIT         ?PR?KEY_EXIT?FUNCTION_KEY
            CODE    7C14H     0003H     UNIT         ?PR?KEY_REW?FUNCTION_KEY
            CODE    7C17H     0003H     UNIT         ?PR?KEY_PLAYPAUSE?FUNCTION_KEY
            CODE    7C1AH     0003H     UNIT         ?PR?KEY_STOP?FUNCTION_KEY
            CODE    7C1DH     0003H     UNIT         ?PR?KEY_FF?FUNCTION_KEY
            CODE    7C20H     0003H     UNIT         ?PR?KEY_STAR?FUNCTION_KEY
            CODE    7C23H     0003H     UNIT         ?PR?KEY_SHARP?FUNCTION_KEY
            CODE    7C26H     0003H     UNIT         ?PR?KEY_DELETE?FUNCTION_KEY
            CODE    7C29H     0003H     UNIT         ?PR?KEY_HANENG?FUNCTION_KEY
            CODE    7C2CH     0003H     UNIT         ?PR?KEY_RED?FUNCTION_KEY
            CODE    7C2FH     0003H     UNIT         ?PR?KEY_GREEN?FUNCTION_KEY
            CODE    7C32H     0003H     UNIT         ?PR?KEY_YELLOW?FUNCTION_KEY
            CODE    7C35H     0003H     UNIT         ?PR?KEY_BLUE?FUNCTION_KEY
            CODE    7C38H     0003H     UNIT         ?PR?KEY_MYMENU?FUNCTION_KEY
            CODE    7C3BH     0003H     UNIT         ?PR?KEY_SHOPPING?FUNCTION_KEY
            CODE    7C3EH     0003H     UNIT         ?PR?KEY_WIDGET?FUNCTION_KEY
            CODE    7C41H     0003H     UNIT         ?PR?KEY_APPSTORE?FUNCTION_KEY
            CODE    7C44H     0003H     UNIT         ?PR?FUNC_SPECIAL_F1?SPECIAL
            CODE    7C47H     0003H     UNIT         ?PR?FUNC_SPECIAL_F3?SPECIAL
            CODE    7C4AH     0003H     UNIT         ?PR?FUNC_SPECIAL_F6?SPECIAL
            CODE    7C4DH     0003H     UNIT         ?PR?FUNC_SPECIAL_F7?SPECIAL
            CODE    7C50H     0003H     UNIT         ?PR?FUNC_SPECIAL_F8?SPECIAL
            CODE    7C53H     0003H     UNIT         ?PR?FUNC_SPECIAL_F9?SPECIAL
            CODE    7C56H     0003H     UNIT         ?PR?FUNC_SPECIAL_FA?SPECIAL
            CODE    7C59H     0003H     UNIT         ?PR?FUNC_SPECIAL_FB?SPECIAL
            CODE    7C5CH     0003H     UNIT         ?PR?FUNC_SPECIAL_FC?SPECIAL
            CODE    7C5FH     0003H     UNIT         ?PR?FUNC_SPECIAL_FD?SPECIAL
            CODE    7C62H     0003H     UNIT         ?PR?FUNC_SPECIAL_E3?SPECIAL
            CODE    7C65H     0003H     UNIT         ?PR?FUNC_SPECIAL_E4?SPECIAL
            CODE    7C68H     0003H     UNIT         ?PR?FUNC_SPECIAL_E8?SPECIAL
            CODE    7C6BH     0003H     UNIT         ?PR?FUNC_SPECIAL_E9?SPECIAL
            CODE    7C6EH     0003H     UNIT         ?PR?FUNC_SPECIAL_EA?SPECIAL
            CODE    7C71H     0003H     UNIT         ?PR?FUNC_SPECIAL_E2?SPECIAL
            CODE    7C74H     0003H     UNIT         ?PR?FUNC_SPECIAL_E6?SPECIAL
            CODE    7C77H     0003H     UNIT         ?PR?FUNC_SPECIAL_FE?SPECIAL
            CODE    7C7AH     0001H     UNIT         ?PR?KEY_NULL?FUNCTION_KEY
            CODE    7C7BH     0001H     UNIT         ?PR?EXTERNAL_INTERRUPT_0?MAIN
            CODE    7C7CH     0001H     UNIT         ?PR?EXTERNAL_INTERRUPT_1?MAIN
            CODE    7C7DH     0001H     UNIT         ?PR?UART0_INTERRUPT?MAIN
            CODE    7C7EH     0001H     UNIT         ?PR?SPI_INTERRUPT?MAIN
            CODE    7C7FH     0001H     UNIT         ?PR?I2C_INTERRUPT?MAIN
BL51 BANKED LINKER/LOCATER V6.22.2.0                                                  07/15/2022  09:34:05  PAGE 7


            CODE    7C80H     0001H     UNIT         ?PR?LVD_INTERRUPT?MAIN
            CODE    7C81H     0001H     UNIT         ?PR?COMP_OUT_RE_INTERRUPT?MAIN
            CODE    7C82H     0001H     UNIT         ?PR?COMP_OUT_FE_INTERRUPT?MAIN
            CODE    7C83H     0001H     UNIT         ?PR?CRT_INTERRUPT?MAIN
            CODE    7C84H     0001H     UNIT         ?PR?EXTERNAL_INTERRUPT_2?MAIN
            CODE    7C85H     0001H     UNIT         ?PR?EXTERNAL_INTERRUPT_3?MAIN
            CODE    7C86H     0001H     UNIT         ?PR?KBI_INTERRUPT?MAIN



OVERLAY MAP OF MODULE:   .\Output\demo (COMMON)


SEGMENT                                             BIT_GROUP          DATA_GROUP 
  +--> CALLED SEGMENT                            START    LENGTH     START    LENGTH
------------------------------------------------------------------------------------
?PR?TIMER1_INTERRUPT?MAIN                        -----    -----      -----    -----
  +--> ?PR?_CRT_ONOFF?CRT
  +--> ?PR?_DEVICE_LED_OFF?COMMON
  +--> ?PR?GETKEY_SIMPLE?COMMON
  +--> ?PR?MY_NEWKEYINCOND?COMMON

?PR?GETKEY_SIMPLE?COMMON                         -----    -----      -----    -----
  +--> ?PR?_DELAYBY10US?COMMON

*** NEW ROOT ***************************************************

?PR?TIMER2_INTERRUPT?MAIN                        -----    -----      -----    -----
  +--> ?PR?SPECTIAL_F0_HIGH_ENVELOP?MAIN
  +--> ?PR?_DELAYBY10US?COMMON
  +--> ?PR?PULSE_STOP?COMMON

?PR?SPECTIAL_F0_HIGH_ENVELOP?MAIN                -----    -----      -----    -----
  +--> ?PR?_DELAYBY10US?COMMON

?PR?PULSE_STOP?COMMON                            -----    -----      -----    -----
  +--> ?PR?_DELAYBY10US?COMMON
  +--> ?PR?ENVELOPCARRIEROFF?COMMON

?PR?ENVELOPCARRIEROFF?COMMON                     -----    -----      -----    -----
  +--> ?PR?_CRT_ONOFF?CRT

*** NEW ROOT ***************************************************

?C_C51STARTUP                                    -----    -----      -----    -----
  +--> ?PR?MAIN?MAIN
  +--> ?C_INITSEG

?PR?MAIN?MAIN                                    -----    -----      -----    -----
  +--> ?PR?SYSTEMINIT?HAL
  +--> ?PR?INITPORT?HAL
  +--> ?PR?RESET_DEFINE?HAL
  +--> ?PR?RSAPPMAIN?FUNCTION_KEY

?PR?SYSTEMINIT?HAL                               -----    -----      -----    -----
  +--> ?PR?CRT_INIT_IR?HAL
  +--> ?PR?CLK_SEL?SYSCLK
BL51 BANKED LINKER/LOCATER V6.22.2.0                                                  07/15/2022  09:34:05  PAGE 8


  +--> ?PR?_CLK_DIV?SYSCLK
  +--> ?PR?SETDELTAV?HAL

?PR?CRT_INIT_IR?HAL                              -----    -----      -----    -----
  +--> ?PR?_CRT_ONOFF?CRT
  +--> ?PR?_CRT_MODESEL?CRT
  +--> ?PR?_CRT_INSEL?CRT
  +--> ?PR?_CRT_CLKDIV?CRT
  +--> ?PR?CRT_REM2P30?CRT
  +--> ?PR?_CRT_REMOPS?CRT

?PR?CLK_SEL?SYSCLK                               0020H.0  0000H.2    0021H    0001H
  +--> ?PR?_T0_WAIT?COMMON

?PR?_T0_WAIT?COMMON                              -----    -----      -----    -----
  +--> ?PR?_TICKTIMER_65MSSTART?HAL

?PR?_TICKTIMER_65MSSTART?HAL                     -----    -----      -----    -----
  +--> ?PR?TIMER0_65MSSTART?HAL

?PR?_CLK_DIV?SYSCLK                              0020H.0  0000H.1    -----    -----

?PR?SETDELTAV?HAL                                -----    -----      -----    -----
  +--> ?PR?_T0_WAIT?COMMON

?PR?RESET_DEFINE?HAL                             -----    -----      0021H    0002H
  +--> ?PR?KEY_BUF_OLD_CLEAR?COMMON
  +--> ?PR?STB_IROUTCOMMON?FUNCTION_KEY
  +--> ?PR?RAM_CHECK?HAL
  +--> ?PR?WBITSTREAM_CLEAR?COMMON
  +--> ?PR?GETKEY_SIMPLE?COMMON
  +--> ?PR?_DEVICE_LED_BLINK?COMMON
  +--> ?PR?_DEVICE_LED_OFF?COMMON

?PR?RAM_CHECK?HAL                                -----    -----      0023H    0002H
  +--> ?PR?CHKSUM_CAL?FUNCTION_KEY
  +--> ?PR?_INFORMATION_RW?FLASH
  +--> ?PR?FACTORYDEFAULT?HAL
  +--> ?PR?WDG_SYSTEMRESET?COMMON

?PR?CHKSUM_CAL?FUNCTION_KEY                      -----    -----      0030H    0003H

?PR?_INFORMATION_RW?FLASH                        -----    -----      -----    -----
  +--> ?PR?_WRITETOFLASH?FLASH
  +--> ?PR?_READFROMFLASH?FLASH

?PR?_WRITETOFLASH?FLASH                          -----    -----      0030H    0005H
  +--> ?PR?_FLASH_PAGE_ERASE?FLASH
  +--> ?PR?_FLASH_PAGE_WRITE?FLASH

?PR?_FLASH_PAGE_ERASE?FLASH                      -----    -----      0035H    0002H

?PR?_FLASH_PAGE_WRITE?FLASH                      -----    -----      0035H    0007H

?PR?_READFROMFLASH?FLASH                         -----    -----      0030H    0007H

?PR?FACTORYDEFAULT?HAL                           -----    -----      -----    -----
BL51 BANKED LINKER/LOCATER V6.22.2.0                                                  07/15/2022  09:34:05  PAGE 9


  +--> ?PR?SAVE_INFORMATION_ALL?FLASH

?PR?SAVE_INFORMATION_ALL?FLASH                   -----    -----      -----    -----
  +--> ?PR?CHKSUM_CAL?FUNCTION_KEY
  +--> ?PR?_INFORMATION_RW?FLASH

?PR?WDG_SYSTEMRESET?COMMON                       -----    -----      -----    -----
  +--> ?PR?CLRWDT?HAL

?PR?WBITSTREAM_CLEAR?COMMON                      -----    -----      0032H    0003H

?PR?_DEVICE_LED_BLINK?COMMON                     -----    -----      0032H    0007H
  +--> ?PR?_DEVICE_LED_OFF?COMMON
  +--> ?PR?_T0_WAIT?COMMON
  +--> ?PR?_DEVICE_LED_ON?COMMON

?PR?RSAPPMAIN?FUNCTION_KEY                       -----    -----      0021H    0001H
  +--> ?PR?_GETKEY?COMMON
  +--> ?PR?PULSE_STOP?COMMON
  +--> ?PR?_IROUT_N?FUNCTION_KEY
  +--> ?PR?_DEVICE_LED_ON?COMMON
  +--> ?PR?_DEVICE_LED_OFF?COMMON
  +--> ?PR?GETKEY_SIMPLE?COMMON
  +--> ?PR?_LOW_VOLTAGE_CHECK?COMMON
  +--> ?PR?_T0_WAIT_KEYIN_CHK?COMMON
  +--> ?PR?LOW_VOLTAGE_CODEOUT?FUNCTION_KEY
  +--> ?PR?_DEVICE_LED_BLINK_KEY_CHK?COMMON
  +--> ?PR?STOP_DEFINE?HAL
  +--> ?PR?EXTINT_INIT?HAL
  +--> ?PR?KEYSCAN_INTERRUPT_ON?HAL
  +--> ?PR?STOP_MODE?MAIN
  +--> ?PR?KEYSCAN_INTERRUPT_OFF?HAL
  +--> ?PR?FACTORY_TEST_PROCESS?FUNCTION_KEY
  +--> ?PR?_CHECK_KEY_2KEYNOSTOP?FUNCTION_KEY
  +--> ?PR?_CHECK_KEY_INSETMODE?COMMON
  +--> ?PR?_SETMODEIN_TIMECHECK?FUNCTION_KEY
  +--> ?PR?_UR_SETTINGCOMMON?FUNCTION_KEY
  +--> ?PR?STB_SETTINGCOMMON?FUNCTION_KEY
  +--> ?PR?SETTING_MODE?COMMON
  +--> ?PR?_SETMODE_STARTTIMEOUT?COMMON
  +--> ?PR?_DEVICE_LED_INSETUP?COMMON
  +--> ?PR?FACTORYDEFAULT?HAL
  +--> ?PR?_DEVICE_LED_BLINK?COMMON
  +--> ?PR?WAIT_GETKEY_SIMPLE?COMMON
  +--> ?PR?_CHECK_KEY_3KEYNOSTOP?FUNCTION_KEY
  +--> ?PR?_CHECK_KEY_4KEYNOSTOP?FUNCTION_KEY
  +--> ?PR?FUNCTIONKEYPROCESS?FUNCTION_KEY
  +--> ?PR?RETURNNORMAL?FUNCTION_KEY

?PR?_GETKEY?COMMON                               -----    -----      0022H    0007H
  +--> ?PR?_DELAYBY10US?COMMON
  +--> ?PR?_CODECVT?COMMON

?PR?_CODECVT?COMMON                              -----    -----      0029H    0007H
  +--> ?CO?ROM

?CO?ROM                                          -----    -----      -----    -----
BL51 BANKED LINKER/LOCATER V6.22.2.0                                                  07/15/2022  09:34:05  PAGE 10


  +--> ?PR?KEY_NULL?FUNCTION_KEY
  +--> ?PR?KEY_TVPOWER?FUNCTION_KEY
  +--> ?PR?KEY_TVVOLUP?FUNCTION_KEY
  +--> ?PR?KEY_TVVOLDOWN?FUNCTION_KEY
  +--> ?PR?KEY_INPUT?FUNCTION_KEY
  +--> ?PR?KEY_ALLPOWER?FUNCTION_KEY
  +--> ?PR?KEY_STBPOWER?FUNCTION_KEY
  +--> ?PR?KEY_VOLUP?FUNCTION_KEY
  +--> ?PR?KEY_VOLDOWN?FUNCTION_KEY
  +--> ?PR?KEY_MUTE?FUNCTION_KEY
  +--> ?PR?KEY_CHUP?FUNCTION_KEY
  +--> ?PR?KEY_CHDOWN?FUNCTION_KEY
  +--> ?PR?KEY_NAVI_UP?FUNCTION_KEY
  +--> ?PR?KEY_NAVI_DOWN?FUNCTION_KEY
  +--> ?PR?KEY_NAVI_LEFT?FUNCTION_KEY
  +--> ?PR?KEY_NAVI_RIGHT?FUNCTION_KEY
  +--> ?PR?KEY_OK?FUNCTION_KEY
  +--> ?PR?KEY_1?FUNCTION_KEY
  +--> ?PR?KEY_2?FUNCTION_KEY
  +--> ?PR?KEY_3?FUNCTION_KEY
  +--> ?PR?KEY_4?FUNCTION_KEY
  +--> ?PR?KEY_5?FUNCTION_KEY
  +--> ?PR?KEY_6?FUNCTION_KEY
  +--> ?PR?KEY_7?FUNCTION_KEY
  +--> ?PR?KEY_8?FUNCTION_KEY
  +--> ?PR?KEY_9?FUNCTION_KEY
  +--> ?PR?KEY_0?FUNCTION_KEY
  +--> ?PR?KEY_MOVIE?FUNCTION_KEY
  +--> ?PR?KEY_REVIEW?FUNCTION_KEY
  +--> ?PR?KEY_CHGUIDE?FUNCTION_KEY
  +--> ?PR?KEY_MENU?FUNCTION_KEY
  +--> ?PR?KEY_OPTION?FUNCTION_KEY
  +--> ?PR?KEY_BACK?FUNCTION_KEY
  +--> ?PR?KEY_EXIT?FUNCTION_KEY
  +--> ?PR?KEY_REW?FUNCTION_KEY
  +--> ?PR?KEY_PLAYPAUSE?FUNCTION_KEY
  +--> ?PR?KEY_STOP?FUNCTION_KEY
  +--> ?PR?KEY_FF?FUNCTION_KEY
  +--> ?PR?KEY_STAR?FUNCTION_KEY
  +--> ?PR?KEY_SHARP?FUNCTION_KEY
  +--> ?PR?KEY_SEARCH?FUNCTION_KEY
  +--> ?PR?KEY_DELETE?FUNCTION_KEY
  +--> ?PR?KEY_HANENG?FUNCTION_KEY
  +--> ?PR?KEY_RED?FUNCTION_KEY
  +--> ?PR?KEY_GREEN?FUNCTION_KEY
  +--> ?PR?KEY_YELLOW?FUNCTION_KEY
  +--> ?PR?KEY_BLUE?FUNCTION_KEY
  +--> ?PR?KEY_MYMENU?FUNCTION_KEY
  +--> ?PR?KEY_SHOPPING?FUNCTION_KEY
  +--> ?PR?KEY_WIDGET?FUNCTION_KEY
  +--> ?PR?KEY_APPSTORE?FUNCTION_KEY
  +--> ?PR?FUNC_SPECIAL_F0?SPECIAL
  +--> ?PR?FUNC_SPECIAL_F1?SPECIAL
  +--> ?PR?FUNC_SPECIAL_F2?SPECIAL
  +--> ?PR?FUNC_SPECIAL_F3?SPECIAL
  +--> ?PR?FUNC_SPECIAL_F4?SPECIAL
  +--> ?PR?FUNC_SPECIAL_F5?SPECIAL
BL51 BANKED LINKER/LOCATER V6.22.2.0                                                  07/15/2022  09:34:05  PAGE 11


  +--> ?PR?FUNC_SPECIAL_F6?SPECIAL
  +--> ?PR?FUNC_SPECIAL_F7?SPECIAL
  +--> ?PR?FUNC_SPECIAL_F8?SPECIAL
  +--> ?PR?FUNC_SPECIAL_F9?SPECIAL
  +--> ?PR?FUNC_SPECIAL_FA?SPECIAL
  +--> ?PR?FUNC_SPECIAL_FB?SPECIAL
  +--> ?PR?FUNC_SPECIAL_FC?SPECIAL
  +--> ?PR?FUNC_SPECIAL_FD?SPECIAL
  +--> ?PR?FUNC_SPECIAL_FE?SPECIAL

?PR?KEY_TVPOWER?FUNCTION_KEY                     -----    -----      -----    -----
  +--> ?PR?OTHER_TV_KEYS_COMMON?FUNCTION_KEY

?PR?OTHER_TV_KEYS_COMMON?FUNCTION_KEY            -----    -----      -----    -----
  +--> ?PR?_BATCH_SS_LG_COMMON?FUNCTION_KEY
  +--> ?PR?GETSAMEKEY_WAIT?FUNCTION_KEY
  +--> ?PR?_DEVICE_LED_ON?COMMON
  +--> ?PR?_DELAYBY10US?COMMON
  +--> ?PR?_IROUT_N?FUNCTION_KEY
  +--> ?PR?PULSE_STOP?COMMON
  +--> ?PR?_TIMER0_65MS16_2_UPDATE?COMMON
  +--> ?PR?_DEVICE_LED_BLINK?COMMON
  +--> ?PR?RETURNNORMAL?FUNCTION_KEY
  +--> ?PR?IGNOREKEYIN?FUNCTION_KEY

?PR?_BATCH_SS_LG_COMMON?FUNCTION_KEY             -----    -----      0031H    0001H
  +--> ?PR?_PULSEOUT_NFRAME?FUNCTION_KEY
  +--> ?PR?_DEVICE_LED_ON?COMMON
  +--> ?PR?_DELAYBY10US?COMMON

?PR?_PULSEOUT_NFRAME?FUNCTION_KEY                -----    -----      -----    -----
  +--> ?PR?MY_SUB?COMMON
  +--> ?PR?PULSE_STOP?COMMON
  +--> ?PR?_DEVICE_LED_OFF?COMMON

?PR?MY_SUB?COMMON                                -----    -----      -----    -----
  +--> ?PR?MY_NEWKEYINCOND?COMMON
  +--> ?PR?WBITSTREAM_CLEAR?COMMON
  +--> ?PR?_STUCKKEYTIMER_START?HAL
  +--> ?PR?SEND_UR_READY?COMMON
  +--> ?PR?_DEVICE_LED_ON?COMMON
  +--> ?PR?SEND_UR?COMMON

?PR?_STUCKKEYTIMER_START?HAL                     -----    -----      -----    -----
  +--> ?PR?TIMER1_1SECSTART?HAL

?PR?SEND_UR_READY?COMMON                         -----    -----      0032H    0006H
  +--> ?PR?_GETCODEADDRESS_SET?COMMON
  +--> ?PR?_LOADSETNUMBER?COMMON
  +--> ?PR?_LOADCUSTDATAWITHFORMAT?COMMON
  +--> ?PR?_FILLBITSTREAMFROMOUTORDER?COMMON

?PR?_GETCODEADDRESS_SET?COMMON                   -----    -----      0038H    0003H
  +--> ?PR?_LOADSETNUMBER?COMMON

?PR?_LOADCUSTDATAWITHFORMAT?COMMON               -----    -----      0038H    000FH
  +--> ?PR?GET_MAP_POINTER?COMMON
BL51 BANKED LINKER/LOCATER V6.22.2.0                                                  07/15/2022  09:34:05  PAGE 12


  +--> ?PR?_LOADFORMAT?COMMON
  +--> ?PR?_CONVERT_CD?COMMON

?PR?GET_MAP_POINTER?COMMON                       -----    -----      0047H    0001H

?PR?_LOADFORMAT?COMMON                           -----    -----      0047H    0006H
  +--> ?PR?_FORMATNEXTADDRCAL?COMMON

?PR?_CONVERT_CD?COMMON                           -----    -----      0047H    0004H

?PR?_FILLBITSTREAMFROMOUTORDER?COMMON            -----    -----      003CH    0013H
  +--> ?PR?_SETBITSTREAMFROMNIBBLE?COMMON

?PR?_SETBITSTREAMFROMNIBBLE?COMMON               -----    -----      004FH    000FH

?PR?SEND_UR?COMMON                               -----    -----      -----    -----
  +--> ?PR?CALCULATEENVELOPE?COMMON
  +--> ?PR?CARRIER_SET?COMMON

?PR?CARRIER_SET?COMMON                           -----    -----      0032H    0002H
  +--> ?PR?_CRT_ONOFF?CRT
  +--> ?PR?TIMER2_START?HAL

?PR?_IROUT_N?FUNCTION_KEY                        -----    -----      0031H    0001H
  +--> ?PR?MY_SUB?COMMON
  +--> ?PR?PULSE_STOP?COMMON
  +--> ?PR?_DEVICE_LED_OFF?COMMON

?PR?RETURNNORMAL?FUNCTION_KEY                    -----    -----      -----    -----
  +--> ?PR?_DEVICE_LED_OFF?COMMON
  +--> ?PR?WAIT_GETKEY_SIMPLE?COMMON

?PR?WAIT_GETKEY_SIMPLE?COMMON                    -----    -----      -----    -----
  +--> ?PR?GETKEY_SIMPLE?COMMON
  +--> ?PR?_T0_WAIT?COMMON

?PR?IGNOREKEYIN?FUNCTION_KEY                     -----    -----      -----    -----
  +--> ?PR?_TIMER0_65MS16_2_UPDATE?COMMON
  +--> ?PR?WAIT_GETKEY_SIMPLE?COMMON

?PR?KEY_TVVOLUP?FUNCTION_KEY                     -----    -----      -----    -----
  +--> ?PR?OTHER_TV_KEYS_COMMON?FUNCTION_KEY

?PR?KEY_TVVOLDOWN?FUNCTION_KEY                   -----    -----      -----    -----
  +--> ?PR?OTHER_TV_KEYS_COMMON?FUNCTION_KEY

?PR?KEY_INPUT?FUNCTION_KEY                       -----    -----      -----    -----
  +--> ?PR?OTHER_TV_KEYS_COMMON?FUNCTION_KEY
  +--> ?PR?_TIMER0_AVSHIFTMODE_UPDATE?COMMON
  +--> ?PR?_AVSHIFTMODE_STARTTIMEOUT?COMMON
  +--> ?PR?_DEVICE_LED_ON?COMMON

?PR?_AVSHIFTMODE_STARTTIMEOUT?COMMON             -----    -----      -----    -----
  +--> ?PR?TIMER0_65MSSTART?HAL

?PR?KEY_ALLPOWER?FUNCTION_KEY                    -----    -----      -----    -----
  +--> ?PR?_PANASONIC_TV_CHECK?COMMON
BL51 BANKED LINKER/LOCATER V6.22.2.0                                                  07/15/2022  09:34:05  PAGE 13


  +--> ?PR?_PULSEOUT_ABOVE_NFRAME?FUNCTION_KEY
  +--> ?PR?_BATCH_SS_LG_COMMON?FUNCTION_KEY
  +--> ?PR?_PULSEOUT_NFRAME?FUNCTION_KEY
  +--> ?PR?_DELAYBY10US?COMMON
  +--> ?PR?OTHER_KEYS_COMMON?FUNCTION_KEY

?PR?_PANASONIC_TV_CHECK?COMMON                   -----    -----      0031H    0006H
  +--> ?PR?_LOADSETNUMBER?COMMON

?PR?_PULSEOUT_ABOVE_NFRAME?FUNCTION_KEY          -----    -----      0030H    0001H
  +--> ?PR?MY_SUB?COMMON
  +--> ?PR?PULSE_STOP?COMMON
  +--> ?PR?_DEVICE_LED_OFF?COMMON

?PR?OTHER_KEYS_COMMON?FUNCTION_KEY               -----    -----      -----    -----
  +--> ?PR?_IROUT_N?FUNCTION_KEY
  +--> ?PR?GETSAMEKEY_WAIT?FUNCTION_KEY
  +--> ?PR?PULSE_STOP?COMMON
  +--> ?PR?_TIMER0_65MS16_2_UPDATE?COMMON
  +--> ?PR?_DEVICE_LED_BLINK?COMMON
  +--> ?PR?RETURNNORMAL?FUNCTION_KEY
  +--> ?PR?IGNOREKEYIN?FUNCTION_KEY

?PR?KEY_STBPOWER?FUNCTION_KEY                    -----    -----      -----    -----
  +--> ?PR?OTHER_KEYS_COMMON?FUNCTION_KEY

?PR?KEY_VOLUP?FUNCTION_KEY                       -----    -----      -----    -----
  +--> ?PR?OTHER_KEYS_COMMON?FUNCTION_KEY

?PR?KEY_VOLDOWN?FUNCTION_KEY                     -----    -----      -----    -----
  +--> ?PR?OTHER_KEYS_COMMON?FUNCTION_KEY

?PR?KEY_MUTE?FUNCTION_KEY                        -----    -----      -----    -----
  +--> ?PR?OTHER_KEYS_COMMON?FUNCTION_KEY

?PR?KEY_CHUP?FUNCTION_KEY                        -----    -----      -----    -----
  +--> ?PR?AUTO_SEARCH_COMMON?FUNCTION_KEY

?PR?AUTO_SEARCH_COMMON?FUNCTION_KEY              -----    -----      -----    -----
  +--> ?PR?_AUTO_SEARCH_1?COMMON
  +--> ?PR?OTHER_KEYS_COMMON?FUNCTION_KEY

?PR?_AUTO_SEARCH_1?COMMON                        -----    -----      -----    -----
  +--> ?PR?_TIMER0_65MS16_2_UPDATE?COMMON
  +--> ?PR?_DEVICE_LED_INSETUP?COMMON
  +--> ?PR?_LOADSETNUMBER?COMMON
  +--> ?PR?PREV_SEARCHNO_FIND_INAUTOSEARCH?C...
  +--> ?PR?_GETCODEADDRESS_SET?COMMON
  +--> ?PR?NEXT_SEARCHNO_FIND_INAUTOSEARCH?C...
  +--> ?PR?_PANASONIC_TV_CHECK?COMMON
  +--> ?PR?_BATCH_SS_LG_COMMON?FUNCTION_KEY
  +--> ?PR?_IROUT_N?FUNCTION_KEY
  +--> ?PR?_DEVICE_LED_BLINK?COMMON

?PR?_DEVICE_LED_INSETUP?COMMON                   -----    -----      0031H    0001H
  +--> ?PR?_DEVICE_LED_BLINK?COMMON

BL51 BANKED LINKER/LOCATER V6.22.2.0                                                  07/15/2022  09:34:05  PAGE 14


?PR?PREV_SEARCHNO_FIND_INAUTOSEARCH?C...         -----    -----      0030H    0002H
  +--> ?PR?_LOADSETNUMBER?COMMON
  +--> ?PR?NEXT_SEARCHNO_FIND_INAUTOSEARCH?C...

?PR?NEXT_SEARCHNO_FIND_INAUTOSEARCH?C...         -----    -----      -----    -----
  +--> ?PR?_LOADSETNUMBER?COMMON

?PR?KEY_CHDOWN?FUNCTION_KEY                      -----    -----      -----    -----
  +--> ?PR?AUTO_SEARCH_COMMON?FUNCTION_KEY

?PR?KEY_NAVI_UP?FUNCTION_KEY                     -----    -----      -----    -----
  +--> ?PR?AVSHIFTMODE_KEYS_COMMON?FUNCTION_KEY

?PR?AVSHIFTMODE_KEYS_COMMON?FUNCTION_KEY         -----    -----      -----    -----
  +--> ?PR?_DEVICE_LED_OFF?COMMON
  +--> ?PR?_BATCH_SS_LG_COMMON?FUNCTION_KEY
  +--> ?PR?_DELAYBY10US?COMMON
  +--> ?PR?GETSAMEKEY_WAIT?FUNCTION_KEY
  +--> ?PR?_IROUT_N?FUNCTION_KEY
  +--> ?PR?_TIMER0_AVSHIFTMODE_UPDATE?COMMON
  +--> ?PR?OTHER_KEYS_COMMON?FUNCTION_KEY

?PR?KEY_NAVI_DOWN?FUNCTION_KEY                   -----    -----      -----    -----
  +--> ?PR?AVSHIFTMODE_KEYS_COMMON?FUNCTION_KEY

?PR?KEY_NAVI_LEFT?FUNCTION_KEY                   -----    -----      -----    -----
  +--> ?PR?AVSHIFTMODE_KEYS_COMMON?FUNCTION_KEY

?PR?KEY_NAVI_RIGHT?FUNCTION_KEY                  -----    -----      -----    -----
  +--> ?PR?AVSHIFTMODE_KEYS_COMMON?FUNCTION_KEY

?PR?KEY_OK?FUNCTION_KEY                          -----    -----      -----    -----
  +--> ?PR?COMPLETE_URSETUP?FUNCTION_KEY
  +--> ?PR?RETURNNORMAL?FUNCTION_KEY
  +--> ?PR?AVSHIFTMODE_KEYS_COMMON?FUNCTION_KEY

?PR?COMPLETE_URSETUP?FUNCTION_KEY                -----    -----      -----    -----
  +--> ?PR?COMPLETE_SETUP_STBPOWER?FUNCTION_KEY
  +--> ?PR?COMPLETE_SETUP_TVPOWER?FUNCTION_KEY
  +--> ?PR?COMPLETE_SETMODE?FUNCTION_KEY

?PR?COMPLETE_SETUP_STBPOWER?FUNCTION_KEY         -----    -----      -----    -----
  +--> ?PR?SAVE_STBPOWER?FUNCTION_KEY

?PR?COMPLETE_SETUP_TVPOWER?FUNCTION_KEY          -----    -----      -----    -----
  +--> ?PR?SAVE_TVPOWER?FUNCTION_KEY

?PR?COMPLETE_SETMODE?FUNCTION_KEY                -----    -----      -----    -----
  +--> ?PR?_DEVICE_LED_OFF?COMMON
  +--> ?PR?SAVE_INFORMATION_ALL?FLASH
  +--> ?PR?_DEVICE_LED_INSETUP?COMMON
  +--> ?PR?RETURNNORMAL?FUNCTION_KEY
  +--> ?PR?WAIT_GETKEY_SIMPLE?COMMON

?PR?KEY_1?FUNCTION_KEY                           -----    -----      -----    -----
  +--> ?PR?_KEY_COMMON_DIGIT?FUNCTION_KEY

BL51 BANKED LINKER/LOCATER V6.22.2.0                                                  07/15/2022  09:34:05  PAGE 15


?PR?_KEY_COMMON_DIGIT?FUNCTION_KEY               -----    -----      -----    -----
  +--> ?PR?_DIGITKEYS_COMMON_SETMODE?FUNCTIO...
  +--> ?PR?OTHER_KEYS_COMMON?FUNCTION_KEY

?PR?_DIGITKEYS_COMMON_SETMODE?FUNCTIO...         -----    -----      0030H    0001H
  +--> ?PR?_DEVICE_LED_INSETUP?COMMON
  +--> ?PR?_GET1CODEFROM3BUF?COMMON
  +--> ?PR?_PANASONIC_TV_CHECK?COMMON
  +--> ?PR?_BATCH_SS_LG_COMMON?FUNCTION_KEY
  +--> ?PR?_IROUT_N?FUNCTION_KEY
  +--> ?PR?_DEVICE_LED_BLINK?COMMON
  +--> ?PR?_TIMER0_65MS16_2_UPDATE?COMMON
  +--> ?PR?WAIT_GETKEY_SIMPLE?COMMON
  +--> ?PR?RETURNNORMAL?FUNCTION_KEY

?PR?_GET1CODEFROM3BUF?COMMON                     -----    -----      0031H    0002H
  +--> ?PR?_GETCODEADDRESS_SET?COMMON
  +--> ?PR?_LOADSETNUMBER?COMMON

?PR?KEY_2?FUNCTION_KEY                           -----    -----      -----    -----
  +--> ?PR?_KEY_COMMON_DIGIT?FUNCTION_KEY

?PR?KEY_3?FUNCTION_KEY                           -----    -----      -----    -----
  +--> ?PR?_KEY_COMMON_DIGIT?FUNCTION_KEY

?PR?KEY_4?FUNCTION_KEY                           -----    -----      -----    -----
  +--> ?PR?_KEY_COMMON_DIGIT?FUNCTION_KEY

?PR?KEY_5?FUNCTION_KEY                           -----    -----      -----    -----
  +--> ?PR?_KEY_COMMON_DIGIT?FUNCTION_KEY

?PR?KEY_6?FUNCTION_KEY                           -----    -----      -----    -----
  +--> ?PR?_KEY_COMMON_DIGIT?FUNCTION_KEY

?PR?KEY_7?FUNCTION_KEY                           -----    -----      -----    -----
  +--> ?PR?_KEY_COMMON_DIGIT?FUNCTION_KEY

?PR?KEY_8?FUNCTION_KEY                           -----    -----      -----    -----
  +--> ?PR?_KEY_COMMON_DIGIT?FUNCTION_KEY

?PR?KEY_9?FUNCTION_KEY                           -----    -----      -----    -----
  +--> ?PR?_KEY_COMMON_DIGIT?FUNCTION_KEY

?PR?KEY_0?FUNCTION_KEY                           -----    -----      -----    -----
  +--> ?PR?_KEY_COMMON_DIGIT?FUNCTION_KEY

?PR?KEY_MOVIE?FUNCTION_KEY                       -----    -----      -----    -----
  +--> ?PR?OTHER_KEYS_COMMON?FUNCTION_KEY

?PR?KEY_REVIEW?FUNCTION_KEY                      -----    -----      -----    -----
  +--> ?PR?OTHER_KEYS_COMMON?FUNCTION_KEY

?PR?KEY_CHGUIDE?FUNCTION_KEY                     -----    -----      -----    -----
  +--> ?PR?OTHER_KEYS_COMMON?FUNCTION_KEY

?PR?KEY_MENU?FUNCTION_KEY                        -----    -----      -----    -----
  +--> ?PR?OTHER_KEYS_COMMON?FUNCTION_KEY
BL51 BANKED LINKER/LOCATER V6.22.2.0                                                  07/15/2022  09:34:05  PAGE 16



?PR?KEY_OPTION?FUNCTION_KEY                      -----    -----      -----    -----
  +--> ?PR?OTHER_KEYS_COMMON?FUNCTION_KEY

?PR?KEY_BACK?FUNCTION_KEY                        -----    -----      -----    -----
  +--> ?PR?OTHER_KEYS_COMMON?FUNCTION_KEY

?PR?KEY_EXIT?FUNCTION_KEY                        -----    -----      -----    -----
  +--> ?PR?OTHER_KEYS_COMMON?FUNCTION_KEY

?PR?KEY_REW?FUNCTION_KEY                         -----    -----      -----    -----
  +--> ?PR?OTHER_KEYS_COMMON?FUNCTION_KEY

?PR?KEY_PLAYPAUSE?FUNCTION_KEY                   -----    -----      -----    -----
  +--> ?PR?OTHER_KEYS_COMMON?FUNCTION_KEY

?PR?KEY_STOP?FUNCTION_KEY                        -----    -----      -----    -----
  +--> ?PR?OTHER_KEYS_COMMON?FUNCTION_KEY

?PR?KEY_FF?FUNCTION_KEY                          -----    -----      -----    -----
  +--> ?PR?OTHER_KEYS_COMMON?FUNCTION_KEY

?PR?KEY_STAR?FUNCTION_KEY                        -----    -----      -----    -----
  +--> ?PR?OTHER_KEYS_COMMON?FUNCTION_KEY

?PR?KEY_SHARP?FUNCTION_KEY                       -----    -----      -----    -----
  +--> ?PR?OTHER_KEYS_COMMON?FUNCTION_KEY

?PR?KEY_SEARCH?FUNCTION_KEY                      -----    -----      -----    -----
  +--> ?PR?CODE_READ_OUT?COMMON
  +--> ?PR?RETURNNORMAL?FUNCTION_KEY
  +--> ?PR?OTHER_KEYS_COMMON?FUNCTION_KEY

?PR?CODE_READ_OUT?COMMON                         -----    -----      0030H    0001H
  +--> ?PR?_DEVICE_LED_OFF?COMMON
  +--> ?PR?_T0_WAIT?COMMON
  +--> ?PR?_DEVICE_LED_BLINK?COMMON

?PR?KEY_DELETE?FUNCTION_KEY                      -----    -----      -----    -----
  +--> ?PR?OTHER_KEYS_COMMON?FUNCTION_KEY

?PR?KEY_HANENG?FUNCTION_KEY                      -----    -----      -----    -----
  +--> ?PR?OTHER_KEYS_COMMON?FUNCTION_KEY

?PR?KEY_RED?FUNCTION_KEY                         -----    -----      -----    -----
  +--> ?PR?OTHER_KEYS_COMMON?FUNCTION_KEY

?PR?KEY_GREEN?FUNCTION_KEY                       -----    -----      -----    -----
  +--> ?PR?OTHER_KEYS_COMMON?FUNCTION_KEY

?PR?KEY_YELLOW?FUNCTION_KEY                      -----    -----      -----    -----
  +--> ?PR?OTHER_KEYS_COMMON?FUNCTION_KEY

?PR?KEY_BLUE?FUNCTION_KEY                        -----    -----      -----    -----
  +--> ?PR?OTHER_KEYS_COMMON?FUNCTION_KEY

?PR?KEY_MYMENU?FUNCTION_KEY                      -----    -----      -----    -----
BL51 BANKED LINKER/LOCATER V6.22.2.0                                                  07/15/2022  09:34:05  PAGE 17


  +--> ?PR?OTHER_KEYS_COMMON?FUNCTION_KEY

?PR?KEY_SHOPPING?FUNCTION_KEY                    -----    -----      -----    -----
  +--> ?PR?OTHER_KEYS_COMMON?FUNCTION_KEY

?PR?KEY_WIDGET?FUNCTION_KEY                      -----    -----      -----    -----
  +--> ?PR?OTHER_KEYS_COMMON?FUNCTION_KEY

?PR?KEY_APPSTORE?FUNCTION_KEY                    -----    -----      -----    -----
  +--> ?PR?OTHER_KEYS_COMMON?FUNCTION_KEY

?PR?FUNC_SPECIAL_F0?SPECIAL                      -----    -----      0030H    000AH

?PR?FUNC_SPECIAL_F2?SPECIAL                      -----    -----      0030H    000AH
  +--> ?PR?_SETBITSTREAMFROMNIBBLE?COMMON

?PR?FUNC_SPECIAL_F4?SPECIAL                      -----    -----      0030H    0016H

?PR?FUNC_SPECIAL_F5?SPECIAL                      -----    -----      0030H    000CH
  +--> ?PR?_FILLBITSTREAMFROMOUTORDER?COMMON

?PR?FUNC_SPECIAL_FE?SPECIAL                      -----    -----      -----    -----
  +--> ?PR?FUNCTION_SPECIAL_EXT_CALL?SPECIAL

?PR?FUNCTION_SPECIAL_EXT_CALL?SPECIAL            -----    -----      -----    -----
  +--> ?PR?FUNC_SPECIAL_E2?SPECIAL
  +--> ?PR?FUNC_SPECIAL_E3?SPECIAL
  +--> ?PR?FUNC_SPECIAL_E4?SPECIAL
  +--> ?PR?FUNC_SPECIAL_E5?SPECIAL
  +--> ?PR?FUNC_SPECIAL_E6?SPECIAL
  +--> ?PR?FUNC_SPECIAL_E8?SPECIAL
  +--> ?PR?FUNC_SPECIAL_E9?SPECIAL
  +--> ?PR?FUNC_SPECIAL_EA?SPECIAL

?PR?FUNC_SPECIAL_E5?SPECIAL                      -----    -----      0030H    0008H

?PR?_T0_WAIT_KEYIN_CHK?COMMON                    -----    -----      -----    -----
  +--> ?PR?_TICKTIMER_65MSSTART?HAL
  +--> ?PR?GETKEY_SIMPLE?COMMON

?PR?LOW_VOLTAGE_CODEOUT?FUNCTION_KEY             -----    -----      -----    -----
  +--> ?PR?STB_IROUTCOMMON?FUNCTION_KEY
  +--> ?PR?_IROUT_N?FUNCTION_KEY
  +--> ?PR?PULSE_STOP?COMMON

?PR?_DEVICE_LED_BLINK_KEY_CHK?COMMON             -----    -----      0022H    0007H
  +--> ?PR?_DEVICE_LED_OFF?COMMON
  +--> ?PR?_T0_WAIT_KEYIN_CHK?COMMON
  +--> ?PR?_DEVICE_LED_ON?COMMON

?PR?STOP_DEFINE?HAL                              -----    -----      -----    -----
  +--> ?PR?_CRT_ONOFF?CRT

?PR?FACTORY_TEST_PROCESS?FUNCTION_KEY            -----    -----      -----    -----
  +--> ?PR?TESTMODE_IROUTCOMMON?FUNCTION_KEY
  +--> ?PR?_IROUT_N?FUNCTION_KEY
  +--> ?PR?RSAPP_EXITTESTMODEFUNCTION?FUNCTI...
BL51 BANKED LINKER/LOCATER V6.22.2.0                                                  07/15/2022  09:34:05  PAGE 18


  +--> ?PR?RSAPP_ENTERTESTMODEFUNCTION?FUNCT...

?PR?RSAPP_EXITTESTMODEFUNCTION?FUNCTI...         -----    -----      -----    -----
  +--> ?PR?PULSE_STOP?COMMON
  +--> ?PR?_DEVICE_LED_OFF?COMMON
  +--> ?PR?FACTORYDEFAULT?HAL
  +--> ?PR?RETURNNORMAL?FUNCTION_KEY
  +--> ?PR?TESTMODE_IROUTCOMMON?FUNCTION_KEY
  +--> ?CO?ROM
  +--> ?PR?_IROUT_N?FUNCTION_KEY
  +--> ?PR?STB_IROUTCOMMON?FUNCTION_KEY
  +--> ?PR?_T0_WAIT?COMMON
  +--> ?PR?SW_SYSTEMRESET?COMMON

?PR?RSAPP_ENTERTESTMODEFUNCTION?FUNCT...         -----    -----      -----    -----
  +--> ?PR?FACTORY_VERSION_REPORTING?FUNCTIO...
  +--> ?PR?_DEVICE_LED_BLINK?COMMON

?PR?FACTORY_VERSION_REPORTING?FUNCTIO...         -----    -----      -----    -----
  +--> ?PR?MY_NEWKEYINCOND?COMMON
  +--> ?PR?WBITSTREAM_CLEAR?COMMON
  +--> ?PR?TESTMODE_IROUTCOMMON?FUNCTION_KEY
  +--> ?PR?SEND_UR_READY?COMMON
  +--> ?CO?ROM
  +--> ?PR?_NECDATAQUICKLYLOAD_FILLPATTERN?F...
  +--> ?PR?SEND_UR?COMMON
  +--> ?PR?PULSE_STOP?COMMON

?PR?_NECDATAQUICKLYLOAD_FILLPATTERN?F...         -----    -----      0022H    0002H

?PR?_CHECK_KEY_2KEYNOSTOP?FUNCTION_KEY           -----    -----      0022H    0006H

?PR?_CHECK_KEY_INSETMODE?COMMON                  -----    -----      0022H    0006H

?PR?_SETMODEIN_TIMECHECK?FUNCTION_KEY            -----    -----      -----    -----
  +--> ?PR?_TICKTIMER_65MSSTART?HAL
  +--> ?PR?_GETKEY?COMMON

?PR?SETTING_MODE?COMMON                          -----    -----      0022H    0003H

?PR?_SETMODE_STARTTIMEOUT?COMMON                 -----    -----      -----    -----
  +--> ?PR?TIMER0_65MSSTART?HAL

?PR?_CHECK_KEY_3KEYNOSTOP?FUNCTION_KEY           -----    -----      0022H    0009H

?PR?_CHECK_KEY_4KEYNOSTOP?FUNCTION_KEY           -----    -----      0022H    000CH

?PR?FUNCTIONKEYPROCESS?FUNCTION_KEY              -----    -----      -----    -----
  +--> ?CO?ROM

?C_INITSEG                                       -----    -----      -----    -----
  +--> ?CO?ROM



SYMBOL TABLE OF MODULE:  .\Output\demo (COMMON)

BL51 BANKED LINKER/LOCATER V6.22.2.0                                                  07/15/2022  09:34:05  PAGE 19


  VALUE           TYPE          NAME
  ----------------------------------

  -------         MODULE        COMMON
  C:0000H         SYMBOL        _ICE_DUMMY_
  D:0080H         PUBLIC        P0
  D:0090H         PUBLIC        P1
  D:00A0H         PUBLIC        P2
  D:00B0H         PUBLIC        P3
  B:00A8H.7       PUBLIC        EA
  D:00AAH         PUBLIC        EIE2
  C:6419H         PUBLIC        prev_searchNo_find_inAutoSearch
  C:5C41H         PUBLIC        _getkey
  C:7143H         PUBLIC        next_searchNo_find_inAutoSearch
  C:6885H         PUBLIC        _Convert_cd
  C:728FH         PUBLIC        my_sub
  C:7B56H         PUBLIC        wait_getkey_simple
  C:6D62H         PUBLIC        _GetCodeAddress_set
  C:6F08H         PUBLIC        _Delayby10us
  C:7BD7H         PUBLIC        SW_SystemReset
  C:584EH         PUBLIC        carrier_set
  C:760CH         PUBLIC        _LoadSetNumber
  C:73C2H         PUBLIC        _FormatNextAddrCal
  C:7B79H         PUBLIC        _avShiftMode_StartTimeOut
  C:7489H         PUBLIC        _device_Led_blink_key_chk
  D:00CBH         PUBLIC        RCAP2H
  C:7BC1H         PUBLIC        _Timer0_65ms16_2_Update
  D:00CAH         PUBLIC        RCAP2L
  C:54E6H         PUBLIC        _auto_search_1
  C:5B0DH         PUBLIC        _SetBitStreamFromNibble
  C:797CH         PUBLIC        _device_led_off
  C:7406H         PUBLIC        _Low_Voltage_Check
  C:47FEH         PUBLIC        _LoadCustDataWithFormat
  D:00E4H         PUBLIC        CRTDATA0
  D:00E5H         PUBLIC        CRTDATA1
  C:66B6H         PUBLIC        _Get1CodeFrom3Buf
  C:7734H         PUBLIC        _t0_wait
  C:7BB8H         PUBLIC        _Timer0_avShiftMode_Update
  D:00E0H         PUBLIC        ACC
  C:7AAAH         PUBLIC        EnvelopCarrierOff
  C:6E3AH         PUBLIC        get_map_pointer
  D:00A5H         PUBLIC        LVDCON
  C:78D0H         PUBLIC        _device_led_on
  B:00A8H.1       PUBLIC        ET0
  C:6902H         PUBLIC        Setting_Mode
  B:00A8H.5       PUBLIC        ET2
  C:6C86H         PUBLIC        _codeCvt
  D:00BDH         PUBLIC        WDTCON
  C:7A97H         PUBLIC        WDG_SystemReset
  C:76DAH         PUBLIC        wBitStream_Clear
  C:6F6AH         PUBLIC        pulse_stop
  D:00E8H         PUBLIC        T168CON
  B:0088H.4       PUBLIC        TR0
  C:67E3H         PUBLIC        CalculateEnvelope
  C:788BH         PUBLIC        _t0_wait_keyin_chk
  B:00C8H.2       PUBLIC        TR2
  C:6367H         PUBLIC        _Check_Key_InSetmode
BL51 BANKED LINKER/LOCATER V6.22.2.0                                                  07/15/2022  09:34:05  PAGE 20


  C:767BH         PUBLIC        _device_Led_blink
  C:7A2FH         PUBLIC        my_newkeyincond
  D:00A7H         PUBLIC        RSTSRC
  D:00C0H         PUBLIC        IIC0CON
  C:382DH         PUBLIC        _FillBitStreamFromOutOrder
  C:445FH         PUBLIC        Send_UR_Ready
  C:708DH         PUBLIC        _Panasonic_TV_Check
  C:51BCH         PUBLIC        _LoadFormat
  C:7B6EH         PUBLIC        _SetMode_StartTimeOut
  C:59B7H         PUBLIC        send_ur
  C:7929H         PUBLIC        key_buf_old_clear
  C:60CAH         PUBLIC        Code_Read_Out
  C:72E0H         PUBLIC        _device_Led_InSetUp
  C:7961H         PUBLIC        getkey_simple
  D:00E1H         PUBLIC        CRTCON1
  C:75E6H         SYMBOL        L?0498
  -------         PROC          L?0497
  -------         ENDPROC       L?0497
  C:75E6H         SYMBOL        L?0498
  -------         PROC          _LOADSETNUMBER
  D:0001H         SYMBOL        p
  -------         DO            
  D:0006H         SYMBOL        value
  -------         ENDDO         
  C:760CH         LINE#         23
  C:760CH         LINE#         24
  C:760CH         LINE#         30
  C:7610H         LINE#         31
  C:7617H         LINE#         35
  C:7617H         LINE#         36
  -------         ENDPROC       _LOADSETNUMBER
  -------         PROC          _PANASONIC_TV_CHECK
  D:0007H         SYMBOL        device
  D:0031H         SYMBOL        set_no
  -------         DO            
  D:0033H         SYMBOL        rtrn
  D:0001H         SYMBOL        pAddr
  D:0034H         SYMBOL        pAddr2
  D:0006H         SYMBOL        bLongFrameNo
  -------         ENDDO         
  C:708DH         LINE#         38
  C:7091H         LINE#         39
  C:7091H         LINE#         40
  C:7094H         LINE#         49
  C:70A2H         LINE#         52
  C:70A5H         LINE#         57
  C:70B4H         LINE#         60
  C:70BFH         LINE#         62
  C:70BFH         LINE#         63
  C:70BFH         LINE#         64
  C:70C8H         LINE#         65
  C:70CCH         LINE#         66
  C:70CCH         LINE#         67
  C:70CEH         LINE#         68
  C:70D0H         LINE#         69
  C:70D0H         LINE#         71
  C:70D8H         LINE#         72
BL51 BANKED LINKER/LOCATER V6.22.2.0                                                  07/15/2022  09:34:05  PAGE 21


  C:70D8H         LINE#         73
  C:70DBH         LINE#         74
  C:70DDH         LINE#         75
  C:70DDH         LINE#         77
  C:70E8H         LINE#         78
  C:70EAH         LINE#         79
  C:70ECH         LINE#         80
  -------         ENDPROC       _PANASONIC_TV_CHECK
  -------         PROC          _SETMODE_STARTTIMEOUT
  D:0006H         SYMBOL        time
  C:7B6EH         LINE#         82
  C:7B6EH         LINE#         83
  C:7B6EH         LINE#         84
  C:7B76H         LINE#         85
  -------         ENDPROC       _SETMODE_STARTTIMEOUT
  -------         PROC          _TIMER0_AVSHIFTMODE_UPDATE
  D:0006H         SYMBOL        time
  C:7BB8H         LINE#         89
  C:7BB8H         LINE#         90
  C:7BB8H         LINE#         91
  C:7BC0H         LINE#         92
  -------         ENDPROC       _TIMER0_AVSHIFTMODE_UPDATE
  -------         PROC          _AVSHIFTMODE_STARTTIMEOUT
  D:0006H         SYMBOL        time
  C:7B79H         LINE#         94
  C:7B79H         LINE#         95
  C:7B79H         LINE#         96
  C:7B81H         LINE#         97
  -------         ENDPROC       _AVSHIFTMODE_STARTTIMEOUT
  -------         PROC          WBITSTREAM_CLEAR
  -------         DO            
  D:0032H         SYMBOL        bit_Clear
  -------         ENDDO         
  C:76DAH         LINE#         113
  C:76DAH         LINE#         114
  C:76DAH         LINE#         117
  C:76E3H         LINE#         119
  C:76F1H         LINE#         120
  C:76F1H         LINE#         121
  C:76FBH         LINE#         122
  C:7707H         LINE#         125
  -------         ENDPROC       WBITSTREAM_CLEAR
  -------         PROC          WDG_SYSTEMRESET
  C:7A97H         LINE#         127
  C:7A97H         LINE#         128
  C:7A97H         LINE#         129
  C:7A9AH         LINE#         131
  C:7A9DH         LINE#         139
  C:7AA4H         LINE#         140
  C:7AA8H         LINE#         142
  -------         ENDPROC       WDG_SYSTEMRESET
  -------         PROC          SW_SYSTEMRESET
  C:7BD7H         LINE#         145
  C:7BD7H         LINE#         146
  C:7BD7H         LINE#         147
  C:7BDAH         LINE#         148
  -------         ENDPROC       SW_SYSTEMRESET
BL51 BANKED LINKER/LOCATER V6.22.2.0                                                  07/15/2022  09:34:05  PAGE 22


  -------         PROC          _LOW_VOLTAGE_CHECK
  D:0007H         SYMBOL        lvi_key
  C:7406H         LINE#         154
  C:7406H         LINE#         155
  C:7406H         LINE#         158
  C:740BH         LINE#         160
  C:7413H         LINE#         161
  C:7413H         LINE#         162
  C:7413H         LINE#         163
  C:7419H         LINE#         164
  C:741BH         LINE#         165
  C:741BH         LINE#         166
  C:741BH         LINE#         167
  C:741BH         LINE#         168
  C:741BH         LINE#         169
  C:7420H         LINE#         170
  C:7422H         LINE#         171
  C:7422H         LINE#         172
  C:7428H         LINE#         173
  C:7428H         LINE#         174
  C:7428H         LINE#         176
  C:7430H         LINE#         177
  C:7430H         LINE#         178
  C:7433H         LINE#         179
  C:7435H         LINE#         181
  C:7435H         LINE#         182
  C:7438H         LINE#         183
  C:7438H         LINE#         185
  C:7445H         LINE#         186
  C:7448H         LINE#         187
  -------         ENDPROC       _LOW_VOLTAGE_CHECK
  -------         PROC          _DELAYBY10US
  D:0006H         SYMBOL        nCnt
  -------         DO            
  D:0004H         SYMBOL        i
  -------         ENDDO         
  C:6F08H         LINE#         190
  C:6F08H         LINE#         191
  C:6F08H         LINE#         192
  C:6F0BH         LINE#         209
  C:6F12H         LINE#         210
  C:6F12H         LINE#         212
  C:6F13H         LINE#         213
  C:6F14H         LINE#         214
  C:6F15H         LINE#         215
  C:6F16H         LINE#         216
  C:6F17H         LINE#         217
  C:6F18H         LINE#         218
  C:6F19H         LINE#         219
  C:6F1AH         LINE#         220
  C:6F1BH         LINE#         221
  C:6F1CH         LINE#         222
  C:6F1DH         LINE#         223
  C:6F1EH         LINE#         224
  C:6F1FH         LINE#         225
  C:6F20H         LINE#         226
  C:6F21H         LINE#         227
BL51 BANKED LINKER/LOCATER V6.22.2.0                                                  07/15/2022  09:34:05  PAGE 23


  C:6F22H         LINE#         228
  C:6F23H         LINE#         229
  C:6F24H         LINE#         230
  C:6F25H         LINE#         231
  C:6F26H         LINE#         232
  C:6F27H         LINE#         233
  C:6F28H         LINE#         234
  C:6F29H         LINE#         235
  C:6F2AH         LINE#         236
  C:6F2BH         LINE#         237
  C:6F2CH         LINE#         238
  C:6F2DH         LINE#         239
  C:6F2EH         LINE#         240
  C:6F2FH         LINE#         241
  C:6F30H         LINE#         242
  C:6F31H         LINE#         243
  C:6F32H         LINE#         244
  C:6F33H         LINE#         245
  C:6F34H         LINE#         246
  C:6F35H         LINE#         247
  C:6F36H         LINE#         248
  C:6F37H         LINE#         249
  C:6F38H         LINE#         250
  C:6F39H         LINE#         251
  C:6F3AH         LINE#         253
  C:6F3BH         LINE#         254
  C:6F3CH         LINE#         255
  C:6F3DH         LINE#         256
  C:6F3EH         LINE#         257
  C:6F3FH         LINE#         258
  C:6F40H         LINE#         259
  C:6F41H         LINE#         260
  C:6F42H         LINE#         261
  C:6F43H         LINE#         262
  C:6F44H         LINE#         263
  C:6F45H         LINE#         264
  C:6F46H         LINE#         265
  C:6F47H         LINE#         266
  C:6F48H         LINE#         267
  C:6F49H         LINE#         268
  C:6F4AH         LINE#         269
  C:6F4BH         LINE#         270
  C:6F4CH         LINE#         271
  C:6F4DH         LINE#         272
  C:6F4EH         LINE#         273
  C:6F4FH         LINE#         274
  C:6F50H         LINE#         275
  C:6F51H         LINE#         276
  C:6F52H         LINE#         277
  C:6F53H         LINE#         278
  C:6F54H         LINE#         279
  C:6F55H         LINE#         280
  C:6F56H         LINE#         281
  C:6F57H         LINE#         282
  C:6F58H         LINE#         283
  C:6F59H         LINE#         284
  C:6F5AH         LINE#         285
BL51 BANKED LINKER/LOCATER V6.22.2.0                                                  07/15/2022  09:34:05  PAGE 24


  C:6F5BH         LINE#         286
  C:6F5CH         LINE#         287
  C:6F5DH         LINE#         288
  C:6F5EH         LINE#         289
  C:6F5FH         LINE#         290
  C:6F60H         LINE#         291
  C:6F61H         LINE#         292
  C:6F62H         LINE#         294
  C:6F69H         LINE#         295
  -------         ENDPROC       _DELAYBY10US
  -------         PROC          _GETKEY
  D:0022H         SYMBOL        p
  -------         DO            
  D:0025H         SYMBOL        keysel
  D:0026H         SYMBOL        i
  D:0027H         SYMBOL        j
  D:0028H         SYMBOL        keydata
  -------         ENDDO         
  C:5C41H         LINE#         302
  C:5C47H         LINE#         303
  C:5C47H         LINE#         309
  C:5C55H         LINE#         310
  C:5C55H         LINE#         311
  C:5C66H         LINE#         312
  C:5C6AH         LINE#         315
  C:5C6FH         LINE#         318
  C:5C72H         LINE#         319
  C:5C75H         LINE#         321
  C:5C78H         LINE#         322
  C:5C7BH         LINE#         324
  C:5C8BH         LINE#         325
  C:5C8BH         LINE#         327
  C:5C92H         LINE#         330
  C:5C96H         LINE#         332
  C:5CA4H         LINE#         333
  C:5CA4H         LINE#         334
  C:5CB0H         LINE#         335
  C:5CB8H         LINE#         337
  C:5CD1H         LINE#         338
  C:5CD1H         LINE#         339
  C:5CF1H         LINE#         340
  C:5CF1H         LINE#         341
  C:5CF5H         LINE#         343
  C:5D03H         LINE#         345
  C:5D03H         LINE#         346
  C:5D06H         LINE#         347
  C:5D10H         LINE#         348
  C:5D21H         LINE#         350
  C:5D32H         LINE#         352
  C:5D38H         LINE#         353
  C:5D38H         LINE#         354
  C:5D3BH         LINE#         355
  C:5D3EH         LINE#         356
  C:5D41H         LINE#         357
  C:5D43H         LINE#         359
  C:5D49H         LINE#         360
  C:5D4BH         LINE#         361
BL51 BANKED LINKER/LOCATER V6.22.2.0                                                  07/15/2022  09:34:05  PAGE 25


  C:5D51H         LINE#         362
  C:5D51H         LINE#         363
  C:5D54H         LINE#         364
  C:5D57H         LINE#         365
  C:5D59H         LINE#         368
  C:5D5CH         LINE#         369
  C:5D61H         LINE#         372
  C:5D64H         LINE#         373
  C:5D67H         LINE#         375
  -------         ENDPROC       _GETKEY
  -------         PROC          KEY_BUF_OLD_CLEAR
  -------         DO            
  D:0007H         SYMBOL        i
  -------         ENDDO         
  C:7929H         LINE#         395
  C:7929H         LINE#         396
  C:7929H         LINE#         399
  C:7944H         LINE#         400
  -------         ENDPROC       KEY_BUF_OLD_CLEAR
  -------         PROC          GETKEY_SIMPLE
  C:7961H         LINE#         402
  C:7961H         LINE#         403
  C:7961H         LINE#         404
  C:7964H         LINE#         407
  C:7967H         LINE#         408
  C:796AH         LINE#         412
  C:7971H         LINE#         414
  C:7979H         LINE#         415
  C:797BH         LINE#         416
  -------         ENDPROC       GETKEY_SIMPLE
  -------         PROC          WAIT_GETKEY_SIMPLE
  C:7B56H         LINE#         422
  C:7B56H         LINE#         423
  C:7B56H         LINE#         424
  C:7B5CH         LINE#         425
  -------         ENDPROC       WAIT_GETKEY_SIMPLE
  -------         PROC          _CODECVT
  D:0029H         SYMBOL        pKey_buf
  -------         DO            
  D:002CH         SYMBOL        i
  D:0005H         SYMBOL        j
  D:0006H         SYMBOL        cpX_cvt
  -------         ENDDO         
  C:6C86H         LINE#         465
  C:6C8CH         LINE#         466
  C:6C8CH         LINE#         470
  C:6C90H         LINE#         472
  C:6CA0H         LINE#         474
  C:6CACH         LINE#         475
  C:6CACH         LINE#         476
  C:6CC1H         LINE#         477
  C:6CC6H         LINE#         478
  C:6CC9H         LINE#         480
  C:6CD5H         LINE#         481
  C:6CD5H         LINE#         482
  C:6CF1H         LINE#         483
  C:6CF4H         LINE#         484
BL51 BANKED LINKER/LOCATER V6.22.2.0                                                  07/15/2022  09:34:05  PAGE 26


  -------         ENDPROC       _CODECVT
  -------         PROC          GET_MAP_POINTER
  -------         DO            
  D:0047H         SYMBOL        i
  D:0007H         SYMBOL        idxKey
  -------         ENDDO         
  C:6E3AH         LINE#         489
  C:6E3AH         LINE#         490
  C:6E3AH         LINE#         492
  C:6E41H         LINE#         498
  C:6E4BH         LINE#         501
  C:6E5BH         LINE#         503
  C:6E72H         LINE#         504
  C:6E86H         LINE#         506
  C:6E96H         LINE#         507
  C:6E9BH         LINE#         509
  C:6E9FH         LINE#         511
  C:6EA1H         LINE#         512
  -------         ENDPROC       GET_MAP_POINTER
  -------         PROC          MY_SUB
  C:728FH         LINE#         517
  C:728FH         LINE#         518
  C:728FH         LINE#         519
  C:7295H         LINE#         522
  C:729CH         LINE#         523
  C:729CH         LINE#         524
  C:729FH         LINE#         526
  C:72A2H         LINE#         529
  C:72A7H         LINE#         532
  C:72ADH         LINE#         533
  C:72ADH         LINE#         535
  C:72B1H         LINE#         536
  C:72B5H         LINE#         537
  C:72BCH         LINE#         539
  C:72BCH         LINE#         541
  C:72CCH         LINE#         543
  C:72D2H         LINE#         547
  C:72D8H         LINE#         549
  C:72DCH         LINE#         558
  C:72DFH         LINE#         559
  C:72DFH         LINE#         560
  -------         ENDPROC       MY_SUB
  -------         PROC          MY_NEWKEYINCOND
  C:7A2FH         LINE#         563
  C:7A2FH         LINE#         564
  C:7A2FH         LINE#         565
  C:7A34H         LINE#         566
  C:7A3CH         LINE#         567
  C:7A44H         LINE#         569
  -------         ENDPROC       MY_NEWKEYINCOND
  -------         PROC          _TIMER0_65MS16_2_UPDATE
  D:0006H         SYMBOL        time
  C:7BC1H         LINE#         571
  C:7BC1H         LINE#         572
  C:7BC1H         LINE#         573
  C:7BC9H         LINE#         574
  -------         ENDPROC       _TIMER0_65MS16_2_UPDATE
BL51 BANKED LINKER/LOCATER V6.22.2.0                                                  07/15/2022  09:34:05  PAGE 27


  -------         PROC          _T0_WAIT
  D:0006H         SYMBOL        i
  C:7734H         LINE#         581
  C:7734H         LINE#         582
  C:7734H         LINE#         583
  C:7738H         LINE#         586
  C:773BH         LINE#         588
  C:7745H         LINE#         591
  C:7759H         LINE#         598
  C:775DH         LINE#         599
  -------         ENDPROC       _T0_WAIT
  -------         PROC          _T0_WAIT_KEYIN_CHK
  D:0006H         SYMBOL        i
  C:788BH         LINE#         601
  C:788BH         LINE#         602
  C:788BH         LINE#         603
  C:788EH         LINE#         605
  C:7898H         LINE#         606
  C:7898H         LINE#         607
  C:78A0H         LINE#         608
  C:78A0H         LINE#         609
  C:78A4H         LINE#         610
  C:78A7H         LINE#         611
  C:78A7H         LINE#         612
  C:78A7H         LINE#         613
  C:78ABH         LINE#         614
  C:78ADH         LINE#         615
  -------         ENDPROC       _T0_WAIT_KEYIN_CHK
  -------         PROC          CARRIER_SET
  -------         DO            
  D:0002H         SYMBOL        carrier
  D:0032H         SYMBOL        i
  -------         ENDDO         
  C:584EH         LINE#         617
  C:584EH         LINE#         618
  C:584EH         LINE#         622
  C:5856H         LINE#         623
  C:5859H         LINE#         626
  C:5863H         LINE#         632
  C:586CH         LINE#         633
  C:586CH         LINE#         634
  C:5872H         LINE#         635
  C:587AH         LINE#         636
  C:587CH         LINE#         638
  C:587CH         LINE#         640
  C:5882H         LINE#         641
  C:5890H         LINE#         646
  C:5890H         LINE#         660
  C:5898H         LINE#         661
  C:58A2H         LINE#         664
  C:58BCH         LINE#         667
  C:58E3H         LINE#         669
  C:5904H         LINE#         671
  C:5913H         LINE#         672
  C:5953H         LINE#         674
  C:596AH         LINE#         675
  C:5971H         LINE#         677
BL51 BANKED LINKER/LOCATER V6.22.2.0                                                  07/15/2022  09:34:05  PAGE 28


  C:5977H         LINE#         679
  C:597DH         LINE#         680
  C:5981H         LINE#         681
  C:5986H         LINE#         682
  C:598AH         LINE#         684
  C:5992H         LINE#         685
  C:59AAH         LINE#         687
  C:59ADH         LINE#         688
  C:59B2H         LINE#         689
  C:59B4H         LINE#         690
  -------         ENDPROC       CARRIER_SET
  -------         PROC          ENVELOPCARRIEROFF
  C:7AAAH         LINE#         693
  C:7AAAH         LINE#         694
  C:7AAAH         LINE#         695
  C:7AADH         LINE#         696
  C:7AB0H         LINE#         697
  C:7AB5H         LINE#         698
  C:7AB8H         LINE#         699
  C:7ABCH         LINE#         700
  -------         ENDPROC       ENVELOPCARRIEROFF
  -------         PROC          PULSE_STOP
  C:6F6AH         LINE#         705
  C:6F6AH         LINE#         706
  C:6F6AH         LINE#         707
  C:6F70H         LINE#         708
  C:6F70H         LINE#         709
  C:6FA4H         LINE#         711
  C:6FACH         LINE#         712
  C:6FACH         LINE#         713
  C:6FB3H         LINE#         716
  C:6FB6H         LINE#         719
  C:6FBBH         LINE#         720
  C:6FC1H         LINE#         721
  C:6FC5H         LINE#         722
  C:6FCAH         LINE#         723
  -------         ENDPROC       PULSE_STOP
  -------         PROC          CALCULATEENVELOPE
  -------         DO            
  D:0002H         SYMBOL        i
  D:0004H         SYMBOL        wBitStream
  -------         ENDDO         
  C:67E3H         LINE#         726
  C:67E3H         LINE#         727
  C:67E3H         LINE#         729
  C:67E6H         LINE#         731
  C:67F1H         LINE#         734
  C:67FEH         LINE#         737
  C:6801H         LINE#         738
  C:6801H         LINE#         740
  C:6810H         LINE#         741
  C:6810H         LINE#         742
  C:6810H         LINE#         743
  C:6812H         LINE#         745
  C:6812H         LINE#         746
  C:682AH         LINE#         749
  C:6836H         LINE#         751
BL51 BANKED LINKER/LOCATER V6.22.2.0                                                  07/15/2022  09:34:05  PAGE 29


  C:683FH         LINE#         752
  C:683FH         LINE#         755
  C:684EH         LINE#         756
  C:684EH         LINE#         757
  C:6866H         LINE#         758
  C:6866H         LINE#         759
  C:6866H         LINE#         760
  C:6866H         LINE#         761
  C:6875H         LINE#         762
  -------         ENDPROC       CALCULATEENVELOPE
  -------         PROC          SEND_UR
  -------         DO            
  D:0004H         SYMBOL        addAddr
  -------         ENDDO         
  C:59B7H         LINE#         768
  C:59B7H         LINE#         769
  C:59B7H         LINE#         780
  C:59BDH         LINE#         782
  C:59C0H         LINE#         787
  C:59D1H         LINE#         790
  C:59DCH         LINE#         791
  C:59DCH         LINE#         792
  C:59F2H         LINE#         793
  C:59F2H         LINE#         794
  C:59FBH         LINE#         795
  C:59FDH         LINE#         796
  C:59FDH         LINE#         800
  C:5A0BH         LINE#         801
  C:5A14H         LINE#         802
  C:5A21H         LINE#         803
  C:5A36H         LINE#         805
  C:5A4EH         LINE#         807
  C:5A6EH         LINE#         809
  C:5A6EH         LINE#         810
  C:5A71H         LINE#         812
  C:5A71H         LINE#         817
  C:5A7BH         LINE#         818
  C:5A83H         LINE#         819
  C:5A90H         LINE#         821
  C:5AA4H         LINE#         822
  C:5AA4H         LINE#         823
  C:5AB9H         LINE#         824
  C:5AB9H         LINE#         825
  C:5AC1H         LINE#         826
  C:5AC3H         LINE#         827
  C:5AC3H         LINE#         830
  C:5ACDH         LINE#         831
  C:5AD5H         LINE#         832
  C:5AE2H         LINE#         834
  C:5B03H         LINE#         836
  C:5B03H         LINE#         837
  C:5B09H         LINE#         839
  C:5B09H         LINE#         858
  C:5B0CH         LINE#         859
  -------         ENDPROC       SEND_UR
  -------         PROC          SEND_UR_READY
  -------         DO            
BL51 BANKED LINKER/LOCATER V6.22.2.0                                                  07/15/2022  09:34:05  PAGE 30


  D:0032H         SYMBOL        uWord12
  D:0034H         SYMBOL        ulIndex
  -------         ENDDO         
  C:445FH         LINE#         864
  C:445FH         LINE#         865
  C:445FH         LINE#         869
  C:4468H         LINE#         870
  C:4468H         LINE#         906
  C:4471H         LINE#         907
  C:4471H         LINE#         909
  C:4480H         LINE#         910
  C:4482H         LINE#         912
  C:4488H         LINE#         913
  C:4488H         LINE#         914
  C:448FH         LINE#         915
  C:4491H         LINE#         918
  C:4491H         LINE#         920
  C:449BH         LINE#         923
  C:44BCH         LINE#         924
  C:44DAH         LINE#         929
  C:44DAH         LINE#         933
  C:44E5H         LINE#         934
  C:44EDH         LINE#         938
  C:44F3H         LINE#         939
  C:44F3H         LINE#         940
  C:44F6H         LINE#         941
  C:44F8H         LINE#         944
  C:4500H         LINE#         945
  C:4502H         LINE#         947
  C:4502H         LINE#         949
  C:4508H         LINE#         950
  C:4508H         LINE#         951
  C:450BH         LINE#         952
  C:450DH         LINE#         955
  C:4522H         LINE#         956
  C:4522H         LINE#         959
  C:4529H         LINE#         962
  C:453CH         LINE#         964
  C:454EH         LINE#         966
  C:455BH         LINE#         969
  C:4564H         LINE#         970
  C:456EH         LINE#         973
  C:4578H         LINE#         974
  C:4578H         LINE#         975
  C:4594H         LINE#         976
  C:4594H         LINE#         978
  C:459EH         LINE#         979
  C:45C1H         LINE#         981
  C:45C8H         LINE#         982
  C:45D2H         LINE#         984
  C:45E4H         LINE#         985
  C:45E4H         LINE#         986
  C:45FEH         LINE#         987
  C:4608H         LINE#         988
  C:4618H         LINE#         989
  C:4618H         LINE#         991
  C:462AH         LINE#         992
BL51 BANKED LINKER/LOCATER V6.22.2.0                                                  07/15/2022  09:34:05  PAGE 31


  C:464AH         LINE#         994
  C:4654H         LINE#         995
  C:4654H         LINE#         996
  C:4678H         LINE#         998
  C:468AH         LINE#         999
  C:46AAH         LINE#         1001
  C:46B4H         LINE#         1002
  C:46D8H         LINE#         1004
  C:46DFH         LINE#         1005
  C:46E9H         LINE#         1007
  C:46FBH         LINE#         1008
  C:46FBH         LINE#         1009
  C:4715H         LINE#         1010
  C:471FH         LINE#         1011
  C:472FH         LINE#         1012
  C:472FH         LINE#         1014
  C:4748H         LINE#         1015
  C:4764H         LINE#         1016
  C:4766H         LINE#         1018
  C:4766H         LINE#         1019
  C:476DH         LINE#         1020
  C:477AH         LINE#         1021
  C:477AH         LINE#         1023
  C:4781H         LINE#         1024
  C:4781H         LINE#         1025
  C:4796H         LINE#         1026
  C:47B1H         LINE#         1028
  C:47E0H         LINE#         1030
  C:47EEH         LINE#         1031
  C:47EEH         LINE#         1032
  C:47FBH         LINE#         1033
  C:47FBH         LINE#         1034
  C:47FBH         LINE#         1035
  C:47FDH         LINE#         1036
  -------         ENDPROC       SEND_UR_READY
  -------         PROC          _SETBITSTREAMFROMNIBBLE
  D:004FH         SYMBOL        npWaddr
  D:0052H         SYMBOL        npbAddr
  D:0055H         SYMBOL        size
  D:0057H         SYMBOL        npWord12
  -------         DO            
  D:005AH         SYMBOL        i
  D:0006H         SYMBOL        j
  D:005CH         SYMBOL        bTemp
  D:005DH         SYMBOL        bTimePos
  -------         ENDDO         
  C:5B0DH         LINE#         1041
  C:5B13H         LINE#         1042
  C:5B13H         LINE#         1047
  C:5B1EH         LINE#         1049
  C:5B31H         LINE#         1050
  C:5B31H         LINE#         1051
  C:5B35H         LINE#         1052
  C:5B3BH         LINE#         1054
  C:5B4AH         LINE#         1056
  C:5B58H         LINE#         1057
  C:5B5BH         LINE#         1060
BL51 BANKED LINKER/LOCATER V6.22.2.0                                                  07/15/2022  09:34:05  PAGE 32


  C:5B64H         LINE#         1062
  C:5B69H         LINE#         1063
  C:5B69H         LINE#         1064
  C:5B77H         LINE#         1065
  C:5B77H         LINE#         1066
  C:5B90H         LINE#         1067
  C:5B90H         LINE#         1068
  C:5B9CH         LINE#         1069
  C:5B9CH         LINE#         1071
  C:5BA7H         LINE#         1072
  C:5BA7H         LINE#         1073
  C:5BA9H         LINE#         1075
  C:5BA9H         LINE#         1076
  C:5BB7H         LINE#         1077
  C:5BB7H         LINE#         1078
  C:5BD0H         LINE#         1079
  C:5BD0H         LINE#         1080
  C:5BDCH         LINE#         1081
  C:5BDCH         LINE#         1083
  C:5BE8H         LINE#         1084
  C:5BE8H         LINE#         1085
  C:5BE8H         LINE#         1087
  C:5BEFH         LINE#         1088
  C:5C06H         LINE#         1089
  C:5C2FH         LINE#         1090
  C:5C3AH         LINE#         1092
  C:5C40H         LINE#         1093
  -------         ENDPROC       _SETBITSTREAMFROMNIBBLE
  -------         PROC          _FILLBITSTREAMFROMOUTORDER
  D:0006H         SYMBOL        start
  D:0001H         SYMBOL        npWaddr
  D:0041H         SYMBOL        npWord12
  -------         DO            
  D:0044H         SYMBOL        i
  D:0046H         SYMBOL        j
  D:0007H         SYMBOL        bTemp
  D:0048H         SYMBOL        ulTemp
  D:004CH         SYMBOL        repeat
  -------         ENDDO         
  C:382DH         LINE#         1098
  C:382DH         LINE#         1099
  C:382DH         LINE#         1106
  C:383FH         LINE#         1107
  C:383FH         LINE#         1108
  C:3852H         LINE#         1110
  C:3857H         LINE#         1111
  C:385EH         LINE#         1113
  C:3861H         LINE#         1115
  C:38A1H         LINE#         1116
  C:38A1H         LINE#         1117
  C:38A1H         LINE#         1118
  C:38AEH         LINE#         1119
  C:38B1H         LINE#         1121
  C:38B1H         LINE#         1122
  C:38C6H         LINE#         1125
  C:38CCH         LINE#         1126
  C:38CCH         LINE#         1127
BL51 BANKED LINKER/LOCATER V6.22.2.0                                                  07/15/2022  09:34:05  PAGE 33


  C:38D4H         LINE#         1128
  C:38D4H         LINE#         1129
  C:38EFH         LINE#         1130
  C:38F1H         LINE#         1131
  C:38F9H         LINE#         1132
  C:38F9H         LINE#         1133
  C:3920H         LINE#         1134
  C:3922H         LINE#         1136
  C:3922H         LINE#         1137
  C:3944H         LINE#         1138
  C:3944H         LINE#         1139
  C:3944H         LINE#         1142
  C:395DH         LINE#         1143
  C:395DH         LINE#         1144
  C:3978H         LINE#         1145
  C:399BH         LINE#         1146
  C:39B0H         LINE#         1147
  C:39BAH         LINE#         1148
  C:39BAH         LINE#         1150
  C:39BAH         LINE#         1151
  C:39CFH         LINE#         1152
  C:39E8H         LINE#         1153
  C:39E8H         LINE#         1154
  C:3A03H         LINE#         1155
  C:3A26H         LINE#         1156
  C:3A3BH         LINE#         1157
  C:3A45H         LINE#         1158
  C:3A45H         LINE#         1160
  C:3A45H         LINE#         1161
  C:3A5AH         LINE#         1163
  C:3A73H         LINE#         1164
  C:3A73H         LINE#         1165
  C:3A8EH         LINE#         1166
  C:3AB1H         LINE#         1167
  C:3AC6H         LINE#         1168
  C:3AD0H         LINE#         1169
  C:3AD0H         LINE#         1171
  C:3AD0H         LINE#         1172
  C:3AE5H         LINE#         1174
  C:3AFEH         LINE#         1175
  C:3AFEH         LINE#         1176
  C:3B19H         LINE#         1177
  C:3B3CH         LINE#         1178
  C:3B51H         LINE#         1179
  C:3B5BH         LINE#         1180
  C:3B5BH         LINE#         1182
  C:3B5BH         LINE#         1183
  C:3B6EH         LINE#         1184
  C:3B71H         LINE#         1186
  C:3B71H         LINE#         1187
  C:3B82H         LINE#         1188
  C:3B82H         LINE#         1189
  C:3B8FH         LINE#         1190
  C:3B91H         LINE#         1192
  C:3B91H         LINE#         1193
  C:3BA4H         LINE#         1194
  C:3BA4H         LINE#         1195
BL51 BANKED LINKER/LOCATER V6.22.2.0                                                  07/15/2022  09:34:05  PAGE 34


  C:3BA6H         LINE#         1197
  C:3BA6H         LINE#         1198
  C:3BB7H         LINE#         1199
  C:3BB7H         LINE#         1200
  C:3BC4H         LINE#         1201
  C:3BC6H         LINE#         1203
  C:3BC6H         LINE#         1204
  C:3BD9H         LINE#         1205
  C:3BD9H         LINE#         1206
  C:3BDBH         LINE#         1208
  C:3BDBH         LINE#         1209
  C:3BEEH         LINE#         1210
  C:3BF0H         LINE#         1212
  C:3BF0H         LINE#         1213
  C:3C03H         LINE#         1214
  C:3C05H         LINE#         1216
  C:3C05H         LINE#         1217
  C:3C25H         LINE#         1218
  C:3C27H         LINE#         1220
  C:3C27H         LINE#         1221
  C:3C27H         LINE#         1222
  C:3C27H         LINE#         1224
  C:3C27H         LINE#         1226
  C:3C2CH         LINE#         1227
  C:3C2CH         LINE#         1228
  C:3C42H         LINE#         1229
  C:3C53H         LINE#         1230
  C:3C53H         LINE#         1231
  C:3C60H         LINE#         1232
  C:3C64H         LINE#         1234
  C:3C72H         LINE#         1235
  C:3C76H         LINE#         1236
  C:3C76H         LINE#         1237
  C:3C84H         LINE#         1238
  C:3C9FH         LINE#         1239
  C:3CA1H         LINE#         1241
  C:3CA1H         LINE#         1242
  C:3CA1H         LINE#         1244
  C:3CA1H         LINE#         1245
  C:3CA7H         LINE#         1246
  C:3CA7H         LINE#         1247
  C:3CA7H         LINE#         1248
  C:3CB2H         LINE#         1249
  C:3CB2H         LINE#         1250
  -------         ENDPROC       _FILLBITSTREAMFROMOUTORDER
  -------         PROC          _LOADFORMAT
  D:0047H         SYMBOL        formatno
  -------         DO            
  D:0004H         SYMBOL        wAddr
  D:0048H         SYMBOL        data1
  D:0001H         SYMBOL        index
  D:0049H         SYMBOL        pAddr
  D:0001H         SYMBOL        pX_Format
  D:004CH         SYMBOL        i
  -------         ENDDO         
  C:51BCH         LINE#         1255
  C:51BEH         LINE#         1256
BL51 BANKED LINKER/LOCATER V6.22.2.0                                                  07/15/2022  09:34:05  PAGE 35


  C:51BEH         LINE#         1276
  C:51C4H         LINE#         1279
  C:51D2H         LINE#         1280
  C:51DEH         LINE#         1283
  C:51E3H         LINE#         1284
  C:51E7H         LINE#         1286
  C:51EDH         LINE#         1287
  C:51EDH         LINE#         1288
  C:51FAH         LINE#         1289
  C:51FFH         LINE#         1291
  C:5203H         LINE#         1292
  C:5203H         LINE#         1294
  C:5211H         LINE#         1295
  C:5211H         LINE#         1296
  C:5230H         LINE#         1297
  C:5234H         LINE#         1299
  C:5236H         LINE#         1300
  C:523EH         LINE#         1301
  C:5244H         LINE#         1302
  C:524CH         LINE#         1303
  C:5253H         LINE#         1304
  C:5259H         LINE#         1305
  C:5260H         LINE#         1306
  C:5263H         LINE#         1318
  C:5270H         LINE#         1319
  C:5289H         LINE#         1321
  C:5296H         LINE#         1322
  C:52AFH         LINE#         1336
  C:52B7H         LINE#         1337
  C:52C1H         LINE#         1338
  C:52C1H         LINE#         1339
  C:52E6H         LINE#         1340
  C:52EAH         LINE#         1341
  C:5309H         LINE#         1344
  C:5319H         LINE#         1347
  C:5321H         LINE#         1348
  C:532BH         LINE#         1349
  C:532BH         LINE#         1350
  C:5350H         LINE#         1351
  C:5354H         LINE#         1352
  C:5373H         LINE#         1355
  C:537DH         LINE#         1356
  C:5387H         LINE#         1357
  C:5387H         LINE#         1358
  C:53ACH         LINE#         1359
  C:53B0H         LINE#         1360
  C:53CFH         LINE#         1363
  C:53D8H         LINE#         1364
  C:53E2H         LINE#         1365
  C:53E2H         LINE#         1366
  C:5407H         LINE#         1367
  C:540BH         LINE#         1368
  C:542AH         LINE#         1371
  C:5435H         LINE#         1372
  C:543FH         LINE#         1373
  C:543FH         LINE#         1374
  C:5464H         LINE#         1375
BL51 BANKED LINKER/LOCATER V6.22.2.0                                                  07/15/2022  09:34:05  PAGE 36


  C:5468H         LINE#         1376
  C:5487H         LINE#         1379
  C:5490H         LINE#         1380
  C:549AH         LINE#         1381
  C:549AH         LINE#         1382
  C:54BFH         LINE#         1383
  C:54C3H         LINE#         1384
  C:54E3H         LINE#         1386
  C:54E5H         LINE#         1387
  -------         ENDPROC       _LOADFORMAT
  -------         PROC          _FORMATNEXTADDRCAL
  D:0082H         SYMBOL        pAddr
  -------         DO            
  D:0007H         SYMBOL        sum
  D:0006H         SYMBOL        buf
  -------         ENDDO         
  C:73C2H         LINE#         1392
  C:73C6H         LINE#         1393
  C:73C6H         LINE#         1396
  C:73C7H         LINE#         1398
  C:73C8H         LINE#         1399
  C:73CAH         LINE#         1400
  C:73CDH         LINE#         1401
  C:73D3H         LINE#         1403
  C:73D5H         LINE#         1405
  C:73D8H         LINE#         1406
  C:73DCH         LINE#         1407
  C:73E3H         LINE#         1408
  C:73E9H         LINE#         1409
  C:73F0H         LINE#         1411
  C:7400H         LINE#         1418
  C:7405H         LINE#         1420
  -------         ENDPROC       _FORMATNEXTADDRCAL
  -------         PROC          _LOADCUSTDATAWITHFORMAT
  D:0038H         SYMBOL        pCodeaddr
  -------         DO            
  D:003BH         SYMBOL        i
  D:003DH         SYMBOL        ulIndex
  D:0041H         SYMBOL        k
  D:0001H         SYMBOL        cpPowerToggle
  D:0042H         SYMBOL        idx_key_local
  D:0043H         SYMBOL        idxKey
  D:0044H         SYMBOL        pulPtr
  D:0006H         SYMBOL        uOffset
  -------         ENDDO         
  C:47FEH         LINE#         1422
  C:4804H         LINE#         1423
  C:4804H         LINE#         1438
  C:4809H         LINE#         1440
  C:4810H         LINE#         1443
  C:481AH         LINE#         1445
  C:4825H         LINE#         1447
  C:483CH         LINE#         1448
  C:4847H         LINE#         1450
  C:4858H         LINE#         1452
  C:4863H         LINE#         1453
  C:486FH         LINE#         1455
BL51 BANKED LINKER/LOCATER V6.22.2.0                                                  07/15/2022  09:34:05  PAGE 37


  C:487AH         LINE#         1457
  C:4881H         LINE#         1458
  C:4881H         LINE#         1460
  C:488BH         LINE#         1461
  C:488BH         LINE#         1472
  C:488EH         LINE#         1474
  C:48A9H         LINE#         1475
  C:48ABH         LINE#         1477
  C:48ABH         LINE#         1493
  C:48BBH         LINE#         1494
  C:48C0H         LINE#         1497
  C:48CBH         LINE#         1502
  C:48D6H         LINE#         1504
  C:48D6H         LINE#         1506
  C:48F9H         LINE#         1507
  C:4910H         LINE#         1509
  C:491AH         LINE#         1510
  C:491AH         LINE#         1511
  C:4920H         LINE#         1517
  C:4934H         LINE#         1520
  C:4934H         LINE#         1521
  C:4937H         LINE#         1523
  C:493DH         LINE#         1525
  C:4946H         LINE#         1527
  C:494BH         LINE#         1528
  C:4953H         LINE#         1530
  C:4979H         LINE#         1531
  C:497CH         LINE#         1533
  C:497CH         LINE#         1534
  C:498BH         LINE#         1536
  C:4995H         LINE#         1538
  C:49A0H         LINE#         1539
  C:49A9H         LINE#         1548
  C:49BCH         LINE#         1550
  C:49C5H         LINE#         1553
  C:49D5H         LINE#         1555
  C:49DFH         LINE#         1556
  C:49E9H         LINE#         1558
  C:49F9H         LINE#         1559
  C:49F9H         LINE#         1560
  C:4A00H         LINE#         1561
  C:4A00H         LINE#         1563
  C:4A00H         LINE#         1564
  C:4A02H         LINE#         1566
  C:4A0AH         LINE#         1567
  C:4A0CH         LINE#         1569
  C:4A1BH         LINE#         1572
  C:4A27H         LINE#         1573
  C:4A41H         LINE#         1576
  C:4A4DH         LINE#         1577
  C:4A56H         LINE#         1592
  C:4A5FH         LINE#         1595
  C:4A69H         LINE#         1597
  C:4A73H         LINE#         1598
  C:4A7DH         LINE#         1600
  C:4A8FH         LINE#         1603
  C:4A9FH         LINE#         1604
BL51 BANKED LINKER/LOCATER V6.22.2.0                                                  07/15/2022  09:34:05  PAGE 38


  C:4A9FH         LINE#         1605
  C:4AB4H         LINE#         1606
  C:4ACFH         LINE#         1607
  C:4AFEH         LINE#         1609
  C:4B3BH         LINE#         1610
  C:4B44H         LINE#         1613
  C:4B53H         LINE#         1614
  C:4B53H         LINE#         1625
  C:4B56H         LINE#         1627
  C:4B56H         LINE#         1628
  C:4B58H         LINE#         1629
  -------         ENDPROC       _LOADCUSTDATAWITHFORMAT
  -------         PROC          L?0499
  -------         ENDPROC       L?0499
  -------         PROC          _CONVERT_CD
  D:0001H         SYMBOL        a
  -------         DO            
  D:0047H         SYMBOL        t
  -------         ENDDO         
  C:6885H         LINE#         1632
  C:6885H         LINE#         1633
  C:6885H         LINE#         1634
  C:688EH         LINE#         1636
  C:68AAH         LINE#         1637
  C:68C3H         LINE#         1638
  C:68DCH         LINE#         1639
  C:68F8H         LINE#         1641
  -------         ENDPROC       _CONVERT_CD
  -------         PROC          _GETCODEADDRESS_SET
  D:0004H         SYMBOL        bSetNo
  -------         DO            
  D:0006H         SYMBOL        bDataInDB
  D:0038H         SYMBOL        pCode_fixaddr
  -------         ENDDO         
  C:6D62H         LINE#         1647
  C:6D66H         LINE#         1648
  C:6D66H         LINE#         1652
  C:6D89H         LINE#         1653
  C:6D8CH         LINE#         1655
  C:6D94H         LINE#         1657
  C:6D9CH         LINE#         1658
  C:6D9CH         LINE#         1659
  C:6DA7H         LINE#         1660
  C:6DB2H         LINE#         1661
  C:6DBBH         LINE#         1663
  C:6DC1H         LINE#         1665
  C:6DC5H         LINE#         1666
  C:6DC5H         LINE#         1667
  C:6DC7H         LINE#         1668
  C:6DC7H         LINE#         1669
  C:6DC7H         LINE#         1671
  C:6DCDH         LINE#         1672
  -------         ENDPROC       _GETCODEADDRESS_SET
  -------         PROC          SETTING_MODE
  -------         DO            
  D:0007H         SYMBOL        i
  D:0022H         SYMBOL        p
BL51 BANKED LINKER/LOCATER V6.22.2.0                                                  07/15/2022  09:34:05  PAGE 39


  -------         ENDDO         
  C:6902H         LINE#         1677
  C:6902H         LINE#         1678
  C:6902H         LINE#         1684
  C:6908H         LINE#         1686
  C:6912H         LINE#         1687
  C:6912H         LINE#         1689
  C:6912H         LINE#         1690
  C:6921H         LINE#         1691
  C:6929H         LINE#         1692
  C:6932H         LINE#         1693
  C:6934H         LINE#         1695
  C:6934H         LINE#         1696
  C:6943H         LINE#         1697
  C:694BH         LINE#         1698
  C:694BH         LINE#         1699
  C:694BH         LINE#         1701
  C:6953H         LINE#         1702
  C:6962H         LINE#         1704
  C:6967H         LINE#         1705
  C:6970H         LINE#         1707
  C:698DH         LINE#         1708
  -------         ENDPROC       SETTING_MODE
  -------         PROC          CODE_READ_OUT
  -------         DO            
  D:0030H         SYMBOL        cnt
  D:0002H         SYMBOL        set_num
  -------         ENDDO         
  C:60CAH         LINE#         1713
  C:60CAH         LINE#         1714
  C:60CAH         LINE#         1718
  C:60CFH         LINE#         1719
  C:60D1H         LINE#         1720
  C:60D3H         LINE#         1721
  C:60D5H         LINE#         1723
  C:60DFH         LINE#         1726
  C:60E5H         LINE#         1727
  C:60E5H         LINE#         1728
  C:60EDH         LINE#         1729
  C:60EDH         LINE#         1732
  C:60FDH         LINE#         1733
  C:6112H         LINE#         1734
  C:6120H         LINE#         1741
  C:6125H         LINE#         1742
  C:612CH         LINE#         1744
  C:6132H         LINE#         1745
  C:6136H         LINE#         1746
  C:6142H         LINE#         1748
  C:6153H         LINE#         1749
  C:6158H         LINE#         1750
  C:615FH         LINE#         1752
  C:6165H         LINE#         1753
  C:6169H         LINE#         1754
  C:6175H         LINE#         1756
  C:6186H         LINE#         1757
  C:618BH         LINE#         1758
  C:6192H         LINE#         1760
BL51 BANKED LINKER/LOCATER V6.22.2.0                                                  07/15/2022  09:34:05  PAGE 40


  C:6198H         LINE#         1761
  C:619CH         LINE#         1762
  C:61A8H         LINE#         1764
  C:61B9H         LINE#         1765
  -------         ENDPROC       CODE_READ_OUT
  -------         PROC          _GET1CODEFROM3BUF
  D:0001H         SYMBOL        p
  -------         DO            
  D:0031H         SYMBOL        i
  -------         ENDDO         
  C:66B6H         LINE#         1771
  C:66B6H         LINE#         1772
  C:66B6H         LINE#         1776
  C:66DFH         LINE#         1788
  C:66FCH         LINE#         1789
  C:66FCH         LINE#         1790
  C:6706H         LINE#         1792
  C:6710H         LINE#         1793
  C:6715H         LINE#         1795
  C:671DH         LINE#         1797
  C:671FH         LINE#         1798
  C:671FH         LINE#         1801
  C:6726H         LINE#         1803
  C:672DH         LINE#         1804
  C:672FH         LINE#         1806
  C:6739H         LINE#         1808
  C:6743H         LINE#         1809
  C:674BH         LINE#         1811
  C:674DH         LINE#         1812
  -------         ENDPROC       _GET1CODEFROM3BUF
  -------         PROC          NEXT_SEARCHNO_FIND_INAUTOSEARCH
  C:7143H         LINE#         1817
  C:7143H         LINE#         1818
  C:7143H         LINE#         1819
  C:714DH         LINE#         1820
  C:7162H         LINE#         1821
  C:716DH         LINE#         1822
  C:7173H         LINE#         1824
  C:7187H         LINE#         1826
  C:718AH         LINE#         1827
  C:718AH         LINE#         1828
  C:718AH         LINE#         1829
  C:7195H         LINE#         1830
  C:7195H         LINE#         1831
  -------         ENDPROC       NEXT_SEARCHNO_FIND_INAUTOSEARCH
  -------         PROC          PREV_SEARCHNO_FIND_INAUTOSEARCH
  -------         DO            
  D:0030H         SYMBOL        CodeNo
  D:0006H         SYMBOL        data1
  D:0005H         SYMBOL        temp
  -------         ENDDO         
  C:6419H         LINE#         1833
  C:6419H         LINE#         1834
  C:6419H         LINE#         1835
  C:6423H         LINE#         1839
  C:6423H         LINE#         1841
  C:6432H         LINE#         1842
BL51 BANKED LINKER/LOCATER V6.22.2.0                                                  07/15/2022  09:34:05  PAGE 41


  C:6432H         LINE#         1843
  C:6455H         LINE#         1844
  C:6455H         LINE#         1845
  C:6455H         LINE#         1846
  C:645FH         LINE#         1847
  C:646EH         LINE#         1848
  C:646FH         LINE#         1849
  C:6475H         LINE#         1851
  C:6481H         LINE#         1853
  C:6485H         LINE#         1854
  C:6485H         LINE#         1855
  C:6485H         LINE#         1859
  C:6486H         LINE#         1860
  C:6488H         LINE#         1865
  C:6488H         LINE#         1867
  C:6488H         LINE#         1868
  C:648BH         LINE#         1869
  C:6497H         LINE#         1874
  C:64B9H         LINE#         1875
  C:64C9H         LINE#         1879
  -------         ENDPROC       PREV_SEARCHNO_FIND_INAUTOSEARCH
  -------         PROC          _DEVICE_LED_OFF
  D:0007H         SYMBOL        i
  C:797CH         LINE#         1881
  C:797CH         LINE#         1882
  C:797CH         LINE#         1886
  C:7984H         LINE#         1887
  C:7986H         LINE#         1889
  C:7991H         LINE#         1890
  C:7991H         LINE#         1891
  C:7991H         LINE#         1892
  C:7991H         LINE#         1893
  C:7993H         LINE#         1895
  C:7993H         LINE#         1896
  C:7993H         LINE#         1897
  C:7993H         LINE#         1899
  C:7993H         LINE#         1903
  C:7996H         LINE#         1905
  C:7996H         LINE#         1906
  C:7996H         LINE#         1908
  -------         ENDPROC       _DEVICE_LED_OFF
  -------         PROC          _DEVICE_LED_ON
  D:0007H         SYMBOL        i
  C:78D0H         LINE#         1910
  C:78D0H         LINE#         1911
  C:78D0H         LINE#         1914
  C:78D8H         LINE#         1915
  C:78DAH         LINE#         1917
  C:78E5H         LINE#         1918
  C:78E5H         LINE#         1919
  C:78E5H         LINE#         1920
  C:78E5H         LINE#         1921
  C:78E7H         LINE#         1923
  C:78E7H         LINE#         1924
  C:78E7H         LINE#         1925
  C:78E7H         LINE#         1927
  C:78EAH         LINE#         1929
BL51 BANKED LINKER/LOCATER V6.22.2.0                                                  07/15/2022  09:34:05  PAGE 42


  C:78EBH         LINE#         1931
  C:78EBH         LINE#         1932
  C:78EEH         LINE#         1933
  C:78EEH         LINE#         1934
  C:78EEH         LINE#         1935
  -------         ENDPROC       _DEVICE_LED_ON
  -------         PROC          _DEVICE_LED_BLINK
  D:0032H         SYMBOL        type
  D:0005H         SYMBOL        repeat
  D:0034H         SYMBOL        on_ms
  D:0036H         SYMBOL        off_ms
  -------         DO            
  D:0038H         SYMBOL        k
  -------         ENDDO         
  C:767BH         LINE#         1940
  C:7681H         LINE#         1941
  C:7681H         LINE#         1944
  C:768EH         LINE#         1945
  C:768EH         LINE#         1946
  C:7693H         LINE#         1947
  C:769AH         LINE#         1948
  C:769FH         LINE#         1949
  C:76A6H         LINE#         1950
  C:76AAH         LINE#         1951
  -------         ENDPROC       _DEVICE_LED_BLINK
  -------         PROC          _DEVICE_LED_BLINK_KEY_CHK
  D:0022H         SYMBOL        type
  D:0005H         SYMBOL        repeat
  D:0024H         SYMBOL        on_ms
  D:0026H         SYMBOL        off_ms
  -------         DO            
  D:0028H         SYMBOL        k
  -------         ENDDO         
  C:7489H         LINE#         1954
  C:748FH         LINE#         1955
  C:748FH         LINE#         1958
  C:749CH         LINE#         1959
  C:749CH         LINE#         1960
  C:74A1H         LINE#         1961
  C:74ABH         LINE#         1962
  C:74AEH         LINE#         1963
  C:74B3H         LINE#         1964
  C:74BDH         LINE#         1965
  C:74C0H         LINE#         1966
  C:74C4H         LINE#         1967
  C:74C6H         LINE#         1968
  -------         ENDPROC       _DEVICE_LED_BLINK_KEY_CHK
  -------         PROC          _DEVICE_LED_INSETUP
  D:0007H         SYMBOL        result
  D:0031H         SYMBOL        type
  C:72E0H         LINE#         1971
  C:72E2H         LINE#         1972
  C:72E2H         LINE#         1973
  C:72F6H         LINE#         1974
  C:72F6H         LINE#         1975
  C:72F6H         LINE#         1976
  C:72FCH         LINE#         1977
BL51 BANKED LINKER/LOCATER V6.22.2.0                                                  07/15/2022  09:34:05  PAGE 43


  C:72FEH         LINE#         1978
  C:72FEH         LINE#         1979
  C:72FEH         LINE#         1980
  C:7300H         LINE#         1981
  C:7300H         LINE#         1982
  C:7306H         LINE#         1983
  C:7308H         LINE#         1984
  C:7308H         LINE#         1985
  C:730EH         LINE#         1986
  C:7310H         LINE#         1987
  C:731CH         LINE#         1989
  C:731EH         LINE#         1990
  C:731EH         LINE#         1991
  C:732EH         LINE#         1992
  C:732EH         LINE#         1993
  C:732EH         LINE#         1994
  -------         ENDPROC       _DEVICE_LED_INSETUP
  -------         PROC          _CHECK_KEY_INSETMODE
  D:0022H         SYMBOL        key1
  D:0025H         SYMBOL        key2
  C:6367H         LINE#         2009
  C:636DH         LINE#         2010
  C:636DH         LINE#         2011
  C:6373H         LINE#         2014
  C:637EH         LINE#         2015
  C:637EH         LINE#         2016
  C:637EH         LINE#         2017
  C:638FH         LINE#         2018
  C:638FH         LINE#         2019
  C:638FH         LINE#         2020
  C:6394H         LINE#         2021
  C:6396H         LINE#         2023
  C:6396H         LINE#         2024
  C:639CH         LINE#         2025
  C:639EH         LINE#         2027
  C:639EH         LINE#         2028
  C:639EH         LINE#         2029
  C:639EH         LINE#         2030
  C:63ABH         LINE#         2031
  C:63ABH         LINE#         2032
  C:63ABH         LINE#         2033
  C:63B1H         LINE#         2034
  C:63B1H         LINE#         2035
  C:63B1H         LINE#         2036
  C:63B1H         LINE#         2037
  C:63B1H         LINE#         2039
  C:63B8H         LINE#         2040
  C:63B8H         LINE#         2041
  C:63C0H         LINE#         2043
  C:63C0H         LINE#         2045
  C:63D1H         LINE#         2046
  C:63D1H         LINE#         2047
  C:63D1H         LINE#         2048
  C:63E2H         LINE#         2049
  C:63E2H         LINE#         2050
  C:63E2H         LINE#         2051
  C:63E7H         LINE#         2052
BL51 BANKED LINKER/LOCATER V6.22.2.0                                                  07/15/2022  09:34:05  PAGE 44


  C:63E9H         LINE#         2054
  C:63E9H         LINE#         2055
  C:63EFH         LINE#         2056
  C:63F1H         LINE#         2058
  C:63F1H         LINE#         2059
  C:63F1H         LINE#         2060
  C:63F1H         LINE#         2061
  C:63FEH         LINE#         2062
  C:63FEH         LINE#         2063
  C:63FEH         LINE#         2064
  C:6404H         LINE#         2065
  C:6404H         LINE#         2066
  C:6404H         LINE#         2067
  C:6404H         LINE#         2068
  C:6404H         LINE#         2070
  C:640BH         LINE#         2071
  C:640BH         LINE#         2072
  C:6418H         LINE#         2074
  C:6418H         LINE#         2075
  -------         ENDPROC       _CHECK_KEY_INSETMODE
  -------         PROC          _AUTO_SEARCH_1
  D:0007H         SYMBOL        direction
  C:54E6H         LINE#         2081
  C:54E6H         LINE#         2082
  C:54E6H         LINE#         2083
  C:54EBH         LINE#         2085
  C:54F0H         LINE#         2086
  C:54F4H         LINE#         2087
  C:54F6H         LINE#         2088
  C:54F8H         LINE#         2089
  C:54FAH         LINE#         2091
  C:5501H         LINE#         2093
  C:5508H         LINE#         2094
  C:5508H         LINE#         2095
  C:550EH         LINE#         2097
  C:550EH         LINE#         2099
  C:5516H         LINE#         2102
  C:5520H         LINE#         2103
  C:5520H         LINE#         2104
  C:5520H         LINE#         2105
  C:552BH         LINE#         2106
  C:5531H         LINE#         2107
  C:5534H         LINE#         2108
  C:553AH         LINE#         2109
  C:5542H         LINE#         2110
  C:5552H         LINE#         2111
  C:5552H         LINE#         2112
  C:5554H         LINE#         2114
  C:5554H         LINE#         2116
  C:555AH         LINE#         2117
  C:555AH         LINE#         2118
  C:555DH         LINE#         2119
  C:555FH         LINE#         2122
  C:5574H         LINE#         2123
  C:5574H         LINE#         2124
  C:5583H         LINE#         2125
  C:558BH         LINE#         2128
BL51 BANKED LINKER/LOCATER V6.22.2.0                                                  07/15/2022  09:34:05  PAGE 45


  C:5591H         LINE#         2129
  C:5591H         LINE#         2131
  C:5597H         LINE#         2132
  C:5597H         LINE#         2133
  C:55A4H         LINE#         2134
  C:55A9H         LINE#         2136
  C:55AFH         LINE#         2137
  C:55BCH         LINE#         2138
  C:55BEH         LINE#         2141
  C:55C1H         LINE#         2142
  C:55C7H         LINE#         2143
  C:55C9H         LINE#         2145
  C:55C9H         LINE#         2147
  C:55CFH         LINE#         2148
  C:55CFH         LINE#         2149
  C:55DCH         LINE#         2150
  C:55E1H         LINE#         2152
  C:55E7H         LINE#         2153
  C:55F4H         LINE#         2154
  C:55F6H         LINE#         2157
  C:55F9H         LINE#         2158
  C:55FEH         LINE#         2159
  C:55FEH         LINE#         2160
  C:5604H         LINE#         2162
  C:5612H         LINE#         2163
  C:5612H         LINE#         2164
  C:5612H         LINE#         2165
  C:5612H         LINE#         2167
  C:5618H         LINE#         2168
  C:561EH         LINE#         2169
  C:5620H         LINE#         2171
  C:5620H         LINE#         2173
  C:5626H         LINE#         2174
  C:5626H         LINE#         2176
  C:5626H         LINE#         2177
  C:5626H         LINE#         2178
  C:5626H         LINE#         2180
  C:562CH         LINE#         2182
  C:5642H         LINE#         2183
  C:5646H         LINE#         2185
  C:5646H         LINE#         2187
  C:565EH         LINE#         2189
  C:5663H         LINE#         2190
  C:5663H         LINE#         2192
  C:5669H         LINE#         2193
  C:566FH         LINE#         2195
  C:5677H         LINE#         2196
  C:5677H         LINE#         2197
  C:567EH         LINE#         2198
  C:567EH         LINE#         2199
  C:568DH         LINE#         2200
  C:5695H         LINE#         2201
  C:5695H         LINE#         2202
  C:5695H         LINE#         2205
  C:569BH         LINE#         2206
  C:569BH         LINE#         2207
  C:56A0H         LINE#         2208
BL51 BANKED LINKER/LOCATER V6.22.2.0                                                  07/15/2022  09:34:05  PAGE 46


  C:56A2H         LINE#         2211
  C:56A2H         LINE#         2212
  C:56C2H         LINE#         2213
  C:56D1H         LINE#         2215
  C:56E0H         LINE#         2216
  C:56E0H         LINE#         2222
  -------         ENDPROC       _AUTO_SEARCH_1
  -------         ENDMOD        COMMON

  -------         MODULE        CRT
  C:0000H         SYMBOL        _ICE_DUMMY_
  D:0080H         PUBLIC        P0
  D:0090H         PUBLIC        P1
  D:00A0H         PUBLIC        P2
  D:00B0H         PUBLIC        P3
  C:7B04H         PUBLIC        CRT_REM2P30
  C:004EH         PUBLIC        _CRT_modesel
  D:00E0H         PUBLIC        ACC
  C:7B84H         PUBLIC        _CRT_clkdiv
  D:00E8H         PUBLIC        T168CON
  C:7B2FH         PUBLIC        _CRT_remops
  C:003EH         PUBLIC        _CRT_onoff
  D:00C0H         PUBLIC        IIC0CON
  C:0066H         PUBLIC        _CRT_insel
  D:00E1H         PUBLIC        CRTCON1
  D:00E2H         PUBLIC        CRTCON2
  -------         PROC          _CRT_ONOFF
  D:0007H         SYMBOL        bi
  C:003EH         LINE#         39
  C:003EH         LINE#         40
  C:003EH         LINE#         41
  C:0043H         LINE#         42
  C:0047H         LINE#         44
  C:004AH         LINE#         45
  -------         ENDPROC       _CRT_ONOFF
  -------         PROC          _CRT_MODESEL
  D:0007H         SYMBOL        bmode
  C:004EH         LINE#         54
  C:004EH         LINE#         55
  C:004EH         LINE#         56
  C:0053H         LINE#         57
  C:0057H         LINE#         59
  C:005AH         LINE#         60
  -------         ENDPROC       _CRT_MODESEL
  -------         PROC          _CRT_INSEL
  D:0007H         SYMBOL        bcrtis
  C:0066H         LINE#         69
  C:0066H         LINE#         70
  C:0066H         LINE#         71
  C:006BH         LINE#         72
  C:006FH         LINE#         74
  C:0072H         LINE#         75
  -------         ENDPROC       _CRT_INSEL
  -------         PROC          _CRT_REMOPS
  D:0007H         SYMBOL        bremops
  C:7B2FH         LINE#         84
  C:7B2FH         LINE#         85
BL51 BANKED LINKER/LOCATER V6.22.2.0                                                  07/15/2022  09:34:05  PAGE 47


  C:7B2FH         LINE#         86
  C:7B34H         LINE#         87
  C:7B38H         LINE#         89
  C:7B3BH         LINE#         92
  -------         ENDPROC       _CRT_REMOPS
  -------         PROC          _CRT_CLKDIV
  D:0007H         SYMBOL        div
  -------         DO            
  D:0006H         SYMBOL        read
  -------         ENDDO         
  C:7B84H         LINE#         99
  C:7B84H         LINE#         100
  C:7B84H         LINE#         102
  C:7B86H         LINE#         103
  C:7B89H         LINE#         104
  C:7B8CH         LINE#         105
  C:7B8EH         LINE#         106
  -------         ENDPROC       _CRT_CLKDIV
  -------         PROC          CRT_REM2P30
  C:7B04H         LINE#         112
  C:7B04H         LINE#         113
  C:7B04H         LINE#         114
  C:7B0BH         LINE#         115
  C:7B12H         LINE#         116
  -------         ENDPROC       CRT_REM2P30
  -------         ENDMOD        CRT

  -------         MODULE        FLASH
  C:0000H         SYMBOL        _ICE_DUMMY_
  D:0080H         PUBLIC        P0
  D:0090H         PUBLIC        P1
  D:00A0H         PUBLIC        P2
  D:00D1H         PUBLIC        FSHADRH
  D:00B0H         PUBLIC        P3
  C:6C13H         PUBLIC        _flash_page_erase
  C:764AH         PUBLIC        _ReadFromFlash
  D:00D2H         PUBLIC        FSHADRL
  C:77F8H         PUBLIC        _Information_RW
  C:62AEH         PUBLIC        _flash_page_write
  D:00D3H         PUBLIC        FSHDAT
  D:00D4H         PUBLIC        FSHCON
  C:78AEH         PUBLIC        _WriteToFlash
  D:00E0H         PUBLIC        ACC
  D:00D5H         PUBLIC        FSHKEY
  D:00D6H         PUBLIC        FSHTIM
  D:00E8H         PUBLIC        T168CON
  D:00C0H         PUBLIC        IIC0CON
  C:7A45H         PUBLIC        Save_Information_All
  -------         PROC          _FLASH_PAGE_ERASE
  D:0004H         SYMBOL        addr
  -------         DO            
  D:0006H         SYMBOL        ii
  D:0035H         SYMBOL        addr0
  -------         ENDDO         
  C:6C13H         LINE#         37
  C:6C17H         LINE#         38
  C:6C17H         LINE#         40
BL51 BANKED LINKER/LOCATER V6.22.2.0                                                  07/15/2022  09:34:05  PAGE 48


  C:6C1FH         LINE#         42
  C:6C23H         LINE#         43
  C:6C28H         LINE#         46
  C:6C3AH         LINE#         47
  C:6C3AH         LINE#         48
  C:6C3EH         LINE#         49
  C:6C46H         LINE#         51
  C:6C46H         LINE#         54
  C:6C49H         LINE#         55
  C:6C49H         LINE#         56
  C:6C58H         LINE#         57
  C:6C58H         LINE#         58
  C:6C58H         LINE#         59
  C:6C65H         LINE#         60
  C:6C6DH         LINE#         61
  C:6C6DH         LINE#         63
  C:6C6DH         LINE#         66
  C:6C70H         LINE#         67
  C:6C73H         LINE#         68
  C:6C76H         LINE#         69
  C:6C79H         LINE#         70
  C:6C7CH         LINE#         71
  C:6C7FH         LINE#         72
  C:6C82H         LINE#         73
  C:6C85H         LINE#         76
  -------         ENDPROC       _FLASH_PAGE_ERASE
  -------         PROC          _FLASH_PAGE_WRITE
  D:0004H         SYMBOL        addr
  D:0035H         SYMBOL        uc_data
  -------         DO            
  D:0038H         SYMBOL        ii
  D:003AH         SYMBOL        addr0
  -------         ENDDO         
  C:62AEH         LINE#         86
  C:62B8H         LINE#         87
  C:62B8H         LINE#         89
  C:62C0H         LINE#         91
  C:62C4H         LINE#         92
  C:62C9H         LINE#         95
  C:62D8H         LINE#         96
  C:62D8H         LINE#         97
  C:62DCH         LINE#         98
  C:62DEH         LINE#         100
  C:62DEH         LINE#         103
  C:62E1H         LINE#         105
  C:62E6H         LINE#         106
  C:62E9H         LINE#         107
  C:62ECH         LINE#         108
  C:62FDH         LINE#         109
  C:6300H         LINE#         110
  C:6303H         LINE#         111
  C:6306H         LINE#         112
  C:6309H         LINE#         113
  C:630CH         LINE#         114
  C:6311H         LINE#         115
  C:6321H         LINE#         118
  C:6326H         LINE#         119
BL51 BANKED LINKER/LOCATER V6.22.2.0                                                  07/15/2022  09:34:05  PAGE 49


  C:6349H         LINE#         120
  C:634AH         LINE#         121
  C:634EH         LINE#         122
  C:6355H         LINE#         123
  C:6356H         LINE#         124
  C:6356H         LINE#         125
  C:6366H         LINE#         128
  -------         ENDPROC       _FLASH_PAGE_WRITE
  -------         PROC          _READFROMFLASH
  D:0030H         SYMBOL        bAddr
  D:0001H         SYMBOL        pByte
  D:0035H         SYMBOL        size
  -------         DO            
  D:0007H         SYMBOL        i
  -------         ENDDO         
  C:764AH         LINE#         130
  C:764EH         LINE#         131
  C:764EH         LINE#         134
  C:765EH         LINE#         135
  C:765EH         LINE#         136
  C:7670H         LINE#         137
  C:7677H         LINE#         138
  C:767AH         LINE#         139
  -------         ENDPROC       _READFROMFLASH
  -------         PROC          _WRITETOFLASH
  D:0030H         SYMBOL        bAddr
  D:0032H         SYMBOL        pByte
  C:78AEH         LINE#         142
  C:78B8H         LINE#         143
  C:78B8H         LINE#         145
  C:78BBH         LINE#         147
  C:78C0H         LINE#         148
  C:78C0H         LINE#         149
  C:78C2H         LINE#         151
  C:78C2H         LINE#         153
  C:78CFH         LINE#         155
  -------         ENDPROC       _WRITETOFLASH
  -------         PROC          _INFORMATION_RW
  D:0007H         SYMBOL        rw
  C:77F8H         LINE#         160
  C:77F8H         LINE#         161
  C:77F8H         LINE#         162
  C:77FFH         LINE#         164
  C:7808H         LINE#         165
  C:7808H         LINE#         166
  C:780FH         LINE#         167
  C:780FH         LINE#         169
  C:780FH         LINE#         170
  C:781CH         LINE#         171
  C:781CH         LINE#         172
  -------         ENDPROC       _INFORMATION_RW
  -------         PROC          SAVE_INFORMATION_ALL
  C:7A45H         LINE#         175
  C:7A45H         LINE#         176
  C:7A45H         LINE#         177
  C:7A48H         LINE#         178
  C:7A51H         LINE#         179
BL51 BANKED LINKER/LOCATER V6.22.2.0                                                  07/15/2022  09:34:05  PAGE 50


  C:7A55H         LINE#         180
  -------         ENDPROC       SAVE_INFORMATION_ALL
  -------         ENDMOD        FLASH

  -------         MODULE        FUNCTION_KEY
  C:0000H         SYMBOL        _ICE_DUMMY_
  D:0080H         PUBLIC        P0
  D:0090H         PUBLIC        P1
  D:00A0H         PUBLIC        P2
  C:7B13H         PUBLIC        Low_Voltage_CodeOut
  D:00B0H         PUBLIC        P3
  C:7589H         PUBLIC        _PulseOut_nFrame
  C:7BF6H         PUBLIC        Key_STBPOWER
  C:6DD7H         PUBLIC        _irout_n
  C:7C08H         PUBLIC        Key_CHGUIDE
  C:7C23H         PUBLIC        Key_SHARP
  C:7C02H         PUBLIC        Key_MOVIE
  C:7786H         PUBLIC        getSameKey_wait
  C:4B59H         PUBLIC        rsAppMain
  C:7C1DH         PUBLIC        Key_FF
  C:7BF3H         PUBLIC        Key_NAVI_RIGHT
  C:7B9AH         PUBLIC        STB_SettingCommon
  C:7C0EH         PUBLIC        Key_BACK
  C:7505H         PUBLIC        Key_INPUT
  C:7618H         PUBLIC        chksum_cal
  C:7BF9H         PUBLIC        Key_VOLUP
  C:661CH         PUBLIC        Factory_Test_Process
  C:775EH         PUBLIC        Key_OK
  C:79FFH         PUBLIC        Save_StbPower
  C:6B18H         PUBLIC        avShiftMode_Keys_Common
  C:0086H         PUBLIC        STB_IRoutCommon
  C:7449H         PUBLIC        _Check_Key_2keyNoStop
  C:7196H         PUBLIC        _Check_Key_3keyNoStop
  C:6EA2H         PUBLIC        _Check_Key_4keyNoStop
  C:7C35H         PUBLIC        Key_BLUE
  C:7BFCH         PUBLIC        Key_VOLDOWN
  C:0006H         PUBLIC        Key_0
  C:000EH         PUBLIC        Key_1
  C:7BE1H         PUBLIC        Key_CHUP
  C:0016H         PUBLIC        Key_2
  C:001EH         PUBLIC        Key_3
  C:7C29H         PUBLIC        Key_HANENG
  C:0026H         PUBLIC        Key_4
  C:002EH         PUBLIC        Key_5
  C:7C26H         PUBLIC        Key_DELETE
  C:7BEAH         PUBLIC        Key_NAVI_UP
  C:0036H         PUBLIC        Key_6
  C:7BE7H         PUBLIC        Key_MENU
  C:005EH         PUBLIC        Key_7
  C:75B2H         PUBLIC        _SetModeIn_TimeCheck
  C:0076H         PUBLIC        Key_8
  C:7C17H         PUBLIC        Key_PLAYPAUSE
  C:7AD0H         PUBLIC        Key_SEARCH
  C:007EH         PUBLIC        Key_9
  C:76ABH         PUBLIC        Key_TVPOWER
  C:7C20H         PUBLIC        Key_STAR
  C:7C11H         PUBLIC        Key_EXIT
BL51 BANKED LINKER/LOCATER V6.22.2.0                                                  07/15/2022  09:34:05  PAGE 51


  C:7BFFH         PUBLIC        Key_MUTE
  C:7BF0H         PUBLIC        Key_NAVI_LEFT
  C:7C7AH         PUBLIC        Key_NULL
  D:00E0H         PUBLIC        ACC
  C:737CH         PUBLIC        Factory_Version_Reporting
  B:00A8H.3       PUBLIC        ET1
  C:7B3CH         PUBLIC        _Key_Common_Digit
  C:61BEH         PUBLIC        _NecDataQuicklyLoad_FillPattern
  C:79E7H         PUBLIC        Save_TvPower
  C:6A2CH         PUBLIC        _batch_SS_LG_Common
  C:78EFH         PUBLIC        Key_TVVOLUP
  C:7BDEH         PUBLIC        Complete_Setup_StbPower
  C:7BE4H         PUBLIC        Key_CHDOWN
  C:7C3EH         PUBLIC        Key_WIDGET
  C:64CAH         PUBLIC        Other_Keys_Common
  C:7C1AH         PUBLIC        Key_STOP
  C:7BEDH         PUBLIC        Key_NAVI_DOWN
  C:7A5AH         PUBLIC        Complete_SetMode
  C:6FCBH         PUBLIC        _PulseOut_Above_nFrame
  D:00E8H         PUBLIC        T168CON
  B:0088H.6       PUBLIC        TR1
  C:7BA4H         PUBLIC        _UR_SettingCommon
  C:5FBDH         PUBLIC        Other_TV_Keys_Common
  C:7C05H         PUBLIC        Key_REVIEW
  C:790CH         PUBLIC        Key_TVVOLDOWN
  C:79CDH         PUBLIC        rsApp_EnterTestModeFunction
  C:74C7H         PUBLIC        auto_search_Common
  C:7C2CH         PUBLIC        Key_RED
  C:7C0BH         PUBLIC        Key_OPTION
  D:00C0H         PUBLIC        IIC0CON
  C:7C38H         PUBLIC        Key_MYMENU
  C:7C32H         PUBLIC        Key_YELLOW
  C:7BAEH         PUBLIC        IgnoreKeyin
  C:7A6FH         PUBLIC        TestMode_IRoutCommon
  C:7BDBH         PUBLIC        Complete_Setup_TvPower
  C:7A83H         PUBLIC        ReturnNormal
  C:6577H         PUBLIC        Key_ALLPOWER
  C:7C3BH         PUBLIC        Key_SHOPPING
  C:5D70H         PUBLIC        _DigitKeys_Common_SetMode
  C:7C14H         PUBLIC        Key_REW
  C:7997H         PUBLIC        Complete_UrSetup
  C:702CH         PUBLIC        functionKeyProcess
  C:7C41H         PUBLIC        Key_APPSTORE
  C:7C2FH         PUBLIC        Key_GREEN
  C:732FH         PUBLIC        rsApp_ExitTestModeFunction
  -------         PROC          STB_IROUTCOMMON
  C:0086H         LINE#         25
  C:0086H         LINE#         26
  C:0086H         LINE#         27
  C:008BH         LINE#         30
  C:0093H         LINE#         31
  C:00A2H         LINE#         32
  -------         ENDPROC       STB_IROUTCOMMON
  -------         PROC          STB_SETTINGCOMMON
  C:7B9AH         LINE#         34
  C:7B9AH         LINE#         35
  C:7B9AH         LINE#         36
BL51 BANKED LINKER/LOCATER V6.22.2.0                                                  07/15/2022  09:34:05  PAGE 52


  C:7B9FH         LINE#         37
  C:7BA3H         LINE#         39
  -------         ENDPROC       STB_SETTINGCOMMON
  -------         PROC          TESTMODE_IROUTCOMMON
  C:7A6FH         LINE#         42
  C:7A6FH         LINE#         43
  C:7A6FH         LINE#         44
  C:7A74H         LINE#         45
  C:7A7AH         LINE#         46
  C:7A82H         LINE#         47
  -------         ENDPROC       TESTMODE_IROUTCOMMON
  -------         PROC          _UR_SETTINGCOMMON
  D:0007H         SYMBOL        set_source
  C:7BA4H         LINE#         50
  C:7BA4H         LINE#         51
  C:7BA4H         LINE#         52
  C:7BA9H         LINE#         53
  C:7BADH         LINE#         55
  -------         ENDPROC       _UR_SETTINGCOMMON
  -------         PROC          LOW_VOLTAGE_CODEOUT
  C:7B13H         LINE#         58
  C:7B13H         LINE#         59
  C:7B13H         LINE#         60
  C:7B16H         LINE#         61
  C:7B1BH         LINE#         62
  C:7B1BH         LINE#         63
  C:7B1EH         LINE#         64
  -------         ENDPROC       LOW_VOLTAGE_CODEOUT
  -------         PROC          L?0422
  -------         ENDPROC       L?0422
  -------         PROC          _PULSEOUT_NFRAME
  D:0007H         SYMBOL        i
  C:7589H         LINE#         68
  C:7589H         LINE#         69
  C:7589H         LINE#         70
  C:758EH         LINE#         71
  C:7594H         LINE#         73
  C:7597H         LINE#         75
  C:759DH         LINE#         76
  C:75AAH         LINE#         78
  C:75ADH         LINE#         79
  -------         ENDPROC       _PULSEOUT_NFRAME
  -------         PROC          _PULSEOUT_ABOVE_NFRAME
  D:0030H         SYMBOL        i
  C:6FCBH         LINE#         82
  C:6FCDH         LINE#         83
  C:6FCDH         LINE#         84
  C:6FD3H         LINE#         86
  C:6FD6H         LINE#         88
  C:6FDCH         LINE#         89
  C:6FDCH         LINE#         90
  C:6FE8H         LINE#         91
  C:6FF0H         LINE#         92
  C:6FF0H         LINE#         93
  C:6FF0H         LINE#         94
  C:6FF9H         LINE#         95
  C:7001H         LINE#         96
BL51 BANKED LINKER/LOCATER V6.22.2.0                                                  07/15/2022  09:34:05  PAGE 53


  C:7001H         LINE#         97
  C:700DH         LINE#         98
  C:700DH         LINE#         100
  C:700DH         LINE#         101
  C:700DH         LINE#         103
  C:700DH         LINE#         104
  C:700DH         LINE#         105
  C:7013H         LINE#         106
  C:7013H         LINE#         107
  C:7019H         LINE#         108
  C:7021H         LINE#         109
  C:7021H         LINE#         111
  C:7021H         LINE#         112
  C:7021H         LINE#         113
  C:7023H         LINE#         115
  C:7023H         LINE#         116
  C:7026H         LINE#         117
  C:702BH         LINE#         118
  C:702BH         LINE#         119
  -------         ENDPROC       _PULSEOUT_ABOVE_NFRAME
  C:6A1AH         SYMBOL        L?0419
  -------         PROC          L?0418
  -------         ENDPROC       L?0418
  C:6A1AH         SYMBOL        L?0419
  -------         PROC          _BATCH_SS_LG_COMMON
  D:0007H         SYMBOL        device
  D:0004H         SYMBOL        set_no
  D:0031H         SYMBOL        key
  C:6A2CH         LINE#         122
  C:6A2EH         LINE#         123
  C:6A2EH         LINE#         124
  C:6A39H         LINE#         125
  C:6A39H         LINE#         126
  C:6A3EH         LINE#         127
  C:6A42H         LINE#         128
  C:6A4BH         LINE#         129
  C:6A52H         LINE#         130
  C:6A52H         LINE#         131
  C:6A52H         LINE#         132
  C:6A55H         LINE#         134
  C:6A5BH         LINE#         136
  C:6A5FH         LINE#         139
  C:6A66H         LINE#         141
  C:6A6CH         LINE#         142
  C:6A70H         LINE#         143
  C:6A79H         LINE#         144
  C:6A80H         LINE#         145
  C:6A80H         LINE#         146
  C:6A80H         LINE#         147
  C:6A83H         LINE#         149
  C:6A8CH         LINE#         150
  C:6A93H         LINE#         151
  C:6A96H         LINE#         152
  C:6A96H         LINE#         153
  C:6A98H         LINE#         154
  -------         ENDPROC       _BATCH_SS_LG_COMMON
  -------         PROC          _SETMODEIN_TIMECHECK
BL51 BANKED LINKER/LOCATER V6.22.2.0                                                  07/15/2022  09:34:05  PAGE 54


  D:0006H         SYMBOL        time
  C:75B2H         LINE#         158
  C:75B2H         LINE#         159
  C:75B2H         LINE#         160
  C:75B5H         LINE#         162
  C:75BFH         LINE#         163
  C:75BFH         LINE#         164
  C:75C8H         LINE#         167
  C:75D2H         LINE#         168
  C:75D2H         LINE#         170
  C:75D5H         LINE#         171
  C:75D5H         LINE#         172
  C:75DDH         LINE#         173
  C:75DDH         LINE#         175
  C:75DDH         LINE#         176
  C:75E3H         LINE#         177
  C:75E3H         LINE#         178
  C:75E3H         LINE#         179
  C:75E3H         LINE#         180
  C:75E5H         LINE#         181
  -------         ENDPROC       _SETMODEIN_TIMECHECK
  -------         PROC          _NECDATAQUICKLYLOAD_FILLPATTERN
  D:0007H         SYMBOL        codedata
  -------         DO            
  D:0005H         SYMBOL        i
  D:0001H         SYMBOL        idxKey
  D:0006H         SYMBOL        LOGIC0
  D:0022H         SYMBOL        LOGIC1
  D:0023H         SYMBOL        LOGIC0_LOW
  -------         ENDDO         
  C:61BEH         LINE#         194
  C:61BEH         LINE#         195
  C:61BEH         LINE#         197
  C:61C0H         LINE#         198
  C:61C3H         LINE#         199
  C:61C6H         LINE#         201
  C:61C8H         LINE#         203
  C:61D4H         LINE#         204
  C:61D4H         LINE#         205
  C:61D8H         LINE#         206
  C:61D8H         LINE#         207
  C:61F7H         LINE#         208
  C:61F9H         LINE#         209
  C:61FBH         LINE#         211
  C:61FBH         LINE#         212
  C:621AH         LINE#         213
  C:6231H         LINE#         214
  C:6231H         LINE#         215
  C:6235H         LINE#         216
  C:6238H         LINE#         218
  C:623DH         LINE#         219
  C:6249H         LINE#         220
  C:6249H         LINE#         221
  C:624DH         LINE#         222
  C:624DH         LINE#         223
  C:626CH         LINE#         224
  C:626EH         LINE#         225
BL51 BANKED LINKER/LOCATER V6.22.2.0                                                  07/15/2022  09:34:05  PAGE 55


  C:6270H         LINE#         227
  C:6270H         LINE#         228
  C:628FH         LINE#         229
  C:62A6H         LINE#         230
  C:62A6H         LINE#         231
  C:62AAH         LINE#         232
  C:62ADH         LINE#         233
  -------         ENDPROC       _NECDATAQUICKLYLOAD_FILLPATTERN
  -------         PROC          FACTORY_VERSION_REPORTING
  C:737CH         LINE#         235
  C:737CH         LINE#         236
  C:737CH         LINE#         237
  C:737FH         LINE#         238
  C:7382H         LINE#         240
  C:7385H         LINE#         241
  C:738BH         LINE#         242
  C:738EH         LINE#         244
  C:7394H         LINE#         245
  C:739DH         LINE#         247
  C:73A3H         LINE#         248
  C:73A9H         LINE#         249
  C:73ACH         LINE#         251
  C:73B2H         LINE#         252
  C:73BFH         LINE#         254
  -------         ENDPROC       FACTORY_VERSION_REPORTING
  -------         PROC          RSAPP_ENTERTESTMODEFUNCTION
  C:79CDH         LINE#         257
  C:79CDH         LINE#         258
  C:79CDH         LINE#         259
  C:79D0H         LINE#         260
  C:79D6H         LINE#         262
  -------         ENDPROC       RSAPP_ENTERTESTMODEFUNCTION
  -------         PROC          RSAPP_EXITTESTMODEFUNCTION
  C:732FH         LINE#         265
  C:732FH         LINE#         266
  C:732FH         LINE#         267
  C:7335H         LINE#         268
  C:7335H         LINE#         269
  C:733BH         LINE#         270
  C:7343H         LINE#         271
  C:7343H         LINE#         272
  C:7346H         LINE#         273
  C:734BH         LINE#         274
  C:734EH         LINE#         276
  C:7351H         LINE#         278
  C:7354H         LINE#         279
  C:735CH         LINE#         280
  C:735CH         LINE#         281
  C:735FH         LINE#         282
  C:7362H         LINE#         283
  C:7367H         LINE#         284
  C:736BH         LINE#         285
  C:736EH         LINE#         286
  C:7373H         LINE#         288
  C:7379H         LINE#         289
  -------         ENDPROC       RSAPP_EXITTESTMODEFUNCTION
  -------         PROC          FACTORY_TEST_PROCESS
BL51 BANKED LINKER/LOCATER V6.22.2.0                                                  07/15/2022  09:34:05  PAGE 56


  -------         DO            
  D:0010H         SYMBOL        pKey
  -------         ENDDO         
  C:661CH         LINE#         292
  C:661CH         LINE#         293
  C:661CH         LINE#         296
  C:6622H         LINE#         297
  C:6622H         LINE#         298
  C:6625H         LINE#         300
  C:662BH         LINE#         302
  C:6633H         LINE#         305
  C:6638H         LINE#         308
  C:663EH         LINE#         310
  C:6651H         LINE#         311
  C:6651H         LINE#         312
  C:6654H         LINE#         313
  C:6654H         LINE#         315
  C:6654H         LINE#         317
  C:6662H         LINE#         320
  C:6678H         LINE#         321
  C:6680H         LINE#         322
  C:669EH         LINE#         324
  C:66A4H         LINE#         326
  C:66ACH         LINE#         327
  C:66ACH         LINE#         328
  C:66AFH         LINE#         329
  C:66B5H         LINE#         330
  C:66B5H         LINE#         332
  -------         ENDPROC       FACTORY_TEST_PROCESS
  -------         PROC          FUNCTIONKEYPROCESS
  C:702CH         LINE#         336
  C:702CH         LINE#         337
  C:702CH         LINE#         338
  C:7032H         LINE#         339
  C:7032H         LINE#         340
  C:7036H         LINE#         341
  C:703AH         LINE#         344
  C:7057H         LINE#         345
  C:7057H         LINE#         347
  C:7059H         LINE#         350
  C:7059H         LINE#         351
  C:705EH         LINE#         352
  C:705EH         LINE#         355
  C:7070H         LINE#         357
  -------         ENDPROC       FUNCTIONKEYPROCESS
  -------         PROC          RSAPPMAIN
  -------         DO            
  D:0021H         SYMBOL        temp_backup_key
  -------         ENDDO         
  C:4B59H         LINE#         363
  C:4B59H         LINE#         364
  C:4B59H         LINE#         369
  C:4B59H         LINE#         370
  C:4B59H         LINE#         371
  C:4B62H         LINE#         374
  C:4B6BH         LINE#         375
  C:4B6BH         LINE#         376
BL51 BANKED LINKER/LOCATER V6.22.2.0                                                  07/15/2022  09:34:05  PAGE 57


  C:4B74H         LINE#         377
  C:4B74H         LINE#         379
  C:4B88H         LINE#         380
  C:4B88H         LINE#         381
  C:4B8BH         LINE#         382
  C:4B93H         LINE#         383
  C:4B96H         LINE#         384
  C:4B99H         LINE#         385
  C:4B9EH         LINE#         386
  C:4B9EH         LINE#         390
  C:4BA2H         LINE#         392
  C:4BAAH         LINE#         393
  C:4BB0H         LINE#         394
  C:4BB3H         LINE#         395
  C:4BB8H         LINE#         397
  C:4BBEH         LINE#         398
  C:4BBEH         LINE#         399
  C:4BC4H         LINE#         400
  C:4BCCH         LINE#         401
  C:4BCFH         LINE#         402
  C:4BCFH         LINE#         409
  C:4BD5H         LINE#         410
  C:4BD5H         LINE#         411
  C:4BDAH         LINE#         412
  C:4BDDH         LINE#         413
  C:4BDDH         LINE#         416
  C:4BE2H         LINE#         418
  C:4BEBH         LINE#         419
  C:4BEBH         LINE#         422
  C:4BF0H         LINE#         426
  C:4BFEH         LINE#         427
  C:4BFEH         LINE#         428
  C:4C07H         LINE#         429
  C:4C07H         LINE#         430
  C:4C0DH         LINE#         431
  C:4C10H         LINE#         432
  C:4C10H         LINE#         434
  C:4C13H         LINE#         436
  C:4C15H         LINE#         439
  C:4C23H         LINE#         440
  C:4C23H         LINE#         441
  C:4C34H         LINE#         442
  C:4C34H         LINE#         443
  C:4C3AH         LINE#         444
  C:4C3FH         LINE#         445
  C:4C42H         LINE#         446
  C:4C42H         LINE#         447
  C:4C42H         LINE#         449
  C:4C48H         LINE#         451
  C:4C4BH         LINE#         452
  C:4C4EH         LINE#         453
  C:4C51H         LINE#         455
  C:4C54H         LINE#         457
  C:4C57H         LINE#         458
  C:4C5AH         LINE#         459
  C:4C5AH         LINE#         461
  C:4C5AH         LINE#         462
BL51 BANKED LINKER/LOCATER V6.22.2.0                                                  07/15/2022  09:34:05  PAGE 58


  C:4C62H         LINE#         463
  C:4C62H         LINE#         464
  C:4C70H         LINE#         465
  C:4C70H         LINE#         466
  C:4C88H         LINE#         467
  C:4C8DH         LINE#         468
  C:4C8DH         LINE#         470
  C:4C94H         LINE#         471
  C:4C94H         LINE#         472
  C:4C9CH         LINE#         474
  C:4C9FH         LINE#         475
  C:4CA5H         LINE#         476
  C:4CA8H         LINE#         478
  C:4CA8H         LINE#         480
  C:4CA8H         LINE#         481
  C:4CB4H         LINE#         482
  C:4CB4H         LINE#         483
  C:4CBAH         LINE#         484
  C:4CBAH         LINE#         485
  C:4CC0H         LINE#         486
  C:4CC8H         LINE#         487
  C:4CCBH         LINE#         491
  C:4CCBH         LINE#         492
  C:4CCBH         LINE#         493
  C:4CCBH         LINE#         495
  C:4CCBH         LINE#         496
  C:4CCEH         LINE#         497
  C:4CCEH         LINE#         498
  C:4CD9H         LINE#         499
  C:4CD9H         LINE#         500
  C:4CEEH         LINE#         501
  C:4CEEH         LINE#         502
  C:4CF4H         LINE#         503
  C:4CF4H         LINE#         504
  C:4CFAH         LINE#         505
  C:4D02H         LINE#         506
  C:4D02H         LINE#         507
  C:4D02H         LINE#         508
  C:4D05H         LINE#         509
  C:4D05H         LINE#         511
  C:4D08H         LINE#         512
  C:4D0DH         LINE#         513
  C:4D15H         LINE#         514
  C:4D1BH         LINE#         519
  C:4D2DH         LINE#         521
  C:4D3EH         LINE#         522
  C:4D3EH         LINE#         523
  C:4D3EH         LINE#         524
  C:4D4BH         LINE#         525
  C:4D4BH         LINE#         526
  C:4D50H         LINE#         527
  C:4D50H         LINE#         528
  C:4D50H         LINE#         529
  C:4D50H         LINE#         530
  C:4D50H         LINE#         531
  C:4D50H         LINE#         532
  C:4D50H         LINE#         533
BL51 BANKED LINKER/LOCATER V6.22.2.0                                                  07/15/2022  09:34:05  PAGE 59


  C:4D52H         LINE#         535
  C:4D52H         LINE#         536
  C:4D5FH         LINE#         537
  C:4D5FH         LINE#         538
  C:4D62H         LINE#         539
  C:4D68H         LINE#         540
  C:4D6BH         LINE#         541
  C:4D72H         LINE#         542
  C:4D78H         LINE#         543
  C:4D78H         LINE#         544
  C:4D78H         LINE#         545
  C:4D7AH         LINE#         547
  C:4D7AH         LINE#         548
  C:4D87H         LINE#         549
  C:4D87H         LINE#         550
  C:4D8AH         LINE#         552
  C:4D9BH         LINE#         553
  C:4DA0H         LINE#         554
  C:4DA3H         LINE#         555
  C:4DA3H         LINE#         556
  C:4DA6H         LINE#         558
  C:4DA6H         LINE#         562
  C:4DA6H         LINE#         563
  C:4DA6H         LINE#         565
  C:4DAEH         LINE#         566
  C:4DAEH         LINE#         567
  C:4DCCH         LINE#         568
  C:4DCCH         LINE#         569
  C:4DD2H         LINE#         570
  C:4DD2H         LINE#         571
  C:4DD8H         LINE#         572
  C:4DE0H         LINE#         573
  C:4DE0H         LINE#         574
  C:4DE0H         LINE#         575
  C:4DE2H         LINE#         576
  C:4DE2H         LINE#         577
  C:4DE5H         LINE#         578
  C:4DEAH         LINE#         579
  C:4DF2H         LINE#         580
  C:4DF2H         LINE#         581
  C:4DF4H         LINE#         583
  C:4DFCH         LINE#         584
  C:4DFCH         LINE#         585
  C:4E23H         LINE#         586
  C:4E23H         LINE#         587
  C:4E29H         LINE#         588
  C:4E29H         LINE#         589
  C:4E2FH         LINE#         590
  C:4E37H         LINE#         591
  C:4E37H         LINE#         592
  C:4E3FH         LINE#         593
  C:4E42H         LINE#         594
  C:4E42H         LINE#         595
  C:4E45H         LINE#         596
  C:4E4AH         LINE#         597
  C:4E52H         LINE#         598
  C:4E52H         LINE#         599
BL51 BANKED LINKER/LOCATER V6.22.2.0                                                  07/15/2022  09:34:05  PAGE 60


  C:4E54H         LINE#         621
  C:4E54H         LINE#         622
  C:4E57H         LINE#         623
  C:4E5CH         LINE#         624
  C:4E64H         LINE#         625
  C:4E6AH         LINE#         626
  C:4E6AH         LINE#         627
  C:4E6AH         LINE#         628
  C:4E6DH         LINE#         631
  C:4E6DH         LINE#         632
  C:4E77H         LINE#         633
  C:4E77H         LINE#         634
  C:4E82H         LINE#         635
  C:4E82H         LINE#         636
  C:4E85H         LINE#         637
  C:4E88H         LINE#         638
  C:4E88H         LINE#         639
  C:4E88H         LINE#         641
  C:4E88H         LINE#         642
  C:4E8BH         LINE#         643
  C:4E8BH         LINE#         644
  C:4E8BH         LINE#         645
  -------         ENDPROC       RSAPPMAIN
  -------         PROC          CHKSUM_CAL
  -------         DO            
  D:0006H         SYMBOL        i
  D:0007H         SYMBOL        sum
  D:0030H         SYMBOL        pStartSetNo
  -------         ENDDO         
  C:7618H         LINE#         649
  C:7618H         LINE#         650
  C:7618H         LINE#         651
  C:761AH         LINE#         652
  C:7623H         LINE#         654
  C:762EH         LINE#         655
  C:762EH         LINE#         656
  C:7641H         LINE#         657
  C:7644H         LINE#         659
  C:7649H         LINE#         660
  -------         ENDPROC       CHKSUM_CAL
  -------         PROC          KEY_NULL
  C:7C7AH         LINE#         666
  C:7C7AH         LINE#         667
  C:7C7AH         LINE#         669
  -------         ENDPROC       KEY_NULL
  C:6DD2H         SYMBOL        L?0421
  -------         PROC          L?0420
  -------         ENDPROC       L?0420
  C:6DD2H         SYMBOL        L?0421
  -------         PROC          _IROUT_N
  D:0031H         SYMBOL        i
  C:6DD7H         LINE#         677
  C:6DD9H         LINE#         678
  C:6DD9H         LINE#         679
  C:6DE5H         LINE#         682
  C:6DEBH         LINE#         684
  C:6DEFH         LINE#         685
BL51 BANKED LINKER/LOCATER V6.22.2.0                                                  07/15/2022  09:34:05  PAGE 61


  C:6DEFH         LINE#         686
  C:6DF2H         LINE#         694
  C:6DF2H         LINE#         695
  C:6DF8H         LINE#         696
  C:6E05H         LINE#         697
  C:6E08H         LINE#         698
  C:6E0DH         LINE#         703
  C:6E0DH         LINE#         704
  C:6E0DH         LINE#         705
  C:6E12H         LINE#         706
  C:6E15H         LINE#         708
  C:6E20H         LINE#         709
  C:6E20H         LINE#         710
  C:6E23H         LINE#         711
  C:6E29H         LINE#         712
  C:6E36H         LINE#         713
  C:6E39H         LINE#         715
  C:6E39H         LINE#         716
  -------         ENDPROC       _IROUT_N
  -------         PROC          RETURNNORMAL
  C:7A83H         LINE#         718
  C:7A83H         LINE#         719
  C:7A83H         LINE#         720
  C:7A88H         LINE#         721
  C:7A8CH         LINE#         722
  C:7A8FH         LINE#         723
  C:7A96H         LINE#         724
  -------         ENDPROC       RETURNNORMAL
  -------         PROC          IGNOREKEYIN
  C:7BAEH         LINE#         726
  C:7BAEH         LINE#         727
  C:7BAEH         LINE#         728
  C:7BB5H         LINE#         729
  -------         ENDPROC       IGNOREKEYIN
  -------         PROC          COMPLETE_SETMODE
  C:7A5AH         LINE#         735
  C:7A5AH         LINE#         736
  C:7A5AH         LINE#         737
  C:7A5FH         LINE#         746
  C:7A62H         LINE#         748
  C:7A69H         LINE#         749
  C:7A6CH         LINE#         750
  -------         ENDPROC       COMPLETE_SETMODE
  -------         PROC          SAVE_TVPOWER
  C:79E7H         LINE#         753
  C:79E7H         LINE#         754
  C:79E7H         LINE#         755
  C:79F6H         LINE#         756
  C:79FEH         LINE#         757
  -------         ENDPROC       SAVE_TVPOWER
  -------         PROC          COMPLETE_SETUP_TVPOWER
  C:7BDBH         LINE#         759
  C:7BDBH         LINE#         760
  C:7BDBH         LINE#         761
  -------         ENDPROC       COMPLETE_SETUP_TVPOWER
  -------         PROC          SAVE_STBPOWER
  C:79FFH         LINE#         765
BL51 BANKED LINKER/LOCATER V6.22.2.0                                                  07/15/2022  09:34:05  PAGE 62


  C:79FFH         LINE#         766
  C:79FFH         LINE#         767
  C:7A0EH         LINE#         768
  C:7A16H         LINE#         769
  -------         ENDPROC       SAVE_STBPOWER
  -------         PROC          COMPLETE_SETUP_STBPOWER
  C:7BDEH         LINE#         771
  C:7BDEH         LINE#         772
  C:7BDEH         LINE#         773
  -------         ENDPROC       COMPLETE_SETUP_STBPOWER
  -------         PROC          COMPLETE_URSETUP
  C:7997H         LINE#         777
  C:7997H         LINE#         778
  C:7997H         LINE#         779
  C:79A1H         LINE#         780
  C:79A1H         LINE#         782
  C:79A1H         LINE#         783
  C:79A4H         LINE#         784
  C:79A6H         LINE#         786
  C:79A6H         LINE#         790
  C:79A6H         LINE#         791
  C:79A9H         LINE#         792
  C:79A9H         LINE#         793
  C:79A9H         LINE#         795
  C:79AFH         LINE#         796
  -------         ENDPROC       COMPLETE_URSETUP
  -------         PROC          _DIGITKEYS_COMMON_SETMODE
  D:0030H         SYMBOL        digit
  C:5D70H         LINE#         833
  C:5D72H         LINE#         834
  C:5D72H         LINE#         835
  C:5D88H         LINE#         836
  C:5D88H         LINE#         837
  C:5D8EH         LINE#         838
  C:5D93H         LINE#         840
  C:5D9FH         LINE#         841
  C:5D9FH         LINE#         842
  C:5DACH         LINE#         847
  C:5DBEH         LINE#         848
  C:5DBEH         LINE#         849
  C:5DC5H         LINE#         850
  C:5DC5H         LINE#         851
  C:5DC5H         LINE#         852
  C:5DC5H         LINE#         853
  C:5DC5H         LINE#         854
  C:5DC5H         LINE#         856
  C:5DC8H         LINE#         858
  C:5DC8H         LINE#         861
  C:5DD0H         LINE#         863
  C:5DDCH         LINE#         864
  C:5DDCH         LINE#         865
  C:5DE2H         LINE#         866
  C:5DF0H         LINE#         867
  C:5DF0H         LINE#         868
  C:5DF0H         LINE#         869
  C:5DF0H         LINE#         871
  C:5DF6H         LINE#         872
BL51 BANKED LINKER/LOCATER V6.22.2.0                                                  07/15/2022  09:34:05  PAGE 63


  C:5DF8H         LINE#         874
  C:5DF8H         LINE#         876
  C:5DFEH         LINE#         877
  C:5DFEH         LINE#         879
  C:5DFEH         LINE#         880
  C:5DFEH         LINE#         881
  C:5DFEH         LINE#         882
  C:5E04H         LINE#         884
  C:5E0AH         LINE#         886
  C:5E20H         LINE#         887
  C:5E24H         LINE#         889
  C:5E24H         LINE#         891
  C:5E2AH         LINE#         893
  C:5E2FH         LINE#         894
  C:5E2FH         LINE#         896
  C:5E35H         LINE#         898
  C:5E3BH         LINE#         899
  C:5E4AH         LINE#         900
  C:5E4CH         LINE#         902
  C:5E53H         LINE#         904
  C:5E58H         LINE#         905
  C:5E5CH         LINE#         906
  C:5E5EH         LINE#         907
  C:5E60H         LINE#         908
  C:5E62H         LINE#         910
  C:5E64H         LINE#         912
  C:5E64H         LINE#         914
  C:5E64H         LINE#         915
  C:5E74H         LINE#         916
  C:5E74H         LINE#         917
  C:5E7BH         LINE#         919
  C:5E81H         LINE#         920
  C:5E90H         LINE#         921
  C:5E93H         LINE#         922
  C:5E93H         LINE#         924
  C:5E96H         LINE#         925
  -------         ENDPROC       _DIGITKEYS_COMMON_SETMODE
  -------         PROC          GETSAMEKEY_WAIT
  C:7786H         LINE#         930
  C:7786H         LINE#         931
  C:7786H         LINE#         932
  C:778EH         LINE#         933
  C:778EH         LINE#         934
  C:778EH         LINE#         935
  C:7797H         LINE#         936
  C:779FH         LINE#         937
  C:779FH         LINE#         938
  C:77ABH         LINE#         939
  C:77ABH         LINE#         941
  C:77ABH         LINE#         942
  C:77ABH         LINE#         944
  C:77ABH         LINE#         945
  C:77ABH         LINE#         946
  -------         ENDPROC       GETSAMEKEY_WAIT
  -------         PROC          _CHECK_KEY_2KEYNOSTOP
  D:0001H         SYMBOL        key1
  D:0025H         SYMBOL        key2
BL51 BANKED LINKER/LOCATER V6.22.2.0                                                  07/15/2022  09:34:05  PAGE 64


  C:7449H         LINE#         948
  C:7449H         LINE#         949
  C:7449H         LINE#         950
  C:7454H         LINE#         951
  C:7454H         LINE#         952
  C:7454H         LINE#         953
  C:7454H         LINE#         954
  C:7454H         LINE#         955
  C:7454H         LINE#         957
  C:7465H         LINE#         958
  C:7465H         LINE#         959
  C:7465H         LINE#         960
  C:7465H         LINE#         961
  C:7465H         LINE#         962
  C:7465H         LINE#         964
  C:746AH         LINE#         965
  C:746CH         LINE#         966
  C:746CH         LINE#         967
  C:746CH         LINE#         968
  C:746EH         LINE#         969
  C:746EH         LINE#         970
  C:746EH         LINE#         972
  C:746EH         LINE#         973
  C:7474H         LINE#         974
  C:7474H         LINE#         976
  C:7474H         LINE#         978
  C:747AH         LINE#         979
  C:747AH         LINE#         980
  C:747FH         LINE#         981
  C:7481H         LINE#         982
  C:7481H         LINE#         984
  C:7481H         LINE#         985
  C:7487H         LINE#         986
  C:7488H         LINE#         987
  C:7488H         LINE#         988
  -------         ENDPROC       _CHECK_KEY_2KEYNOSTOP
  -------         PROC          _CHECK_KEY_3KEYNOSTOP
  D:0001H         SYMBOL        key1
  D:0025H         SYMBOL        key2
  D:0028H         SYMBOL        key3
  C:7196H         LINE#         990
  C:7196H         LINE#         991
  C:7196H         LINE#         992
  C:71A1H         LINE#         993
  C:71A1H         LINE#         994
  C:71A1H         LINE#         995
  C:71A1H         LINE#         996
  C:71A1H         LINE#         997
  C:71A1H         LINE#         999
  C:71B2H         LINE#         1000
  C:71B2H         LINE#         1001
  C:71B2H         LINE#         1002
  C:71B2H         LINE#         1003
  C:71B2H         LINE#         1004
  C:71B2H         LINE#         1006
  C:71C3H         LINE#         1007
  C:71C3H         LINE#         1008
BL51 BANKED LINKER/LOCATER V6.22.2.0                                                  07/15/2022  09:34:05  PAGE 65


  C:71C3H         LINE#         1009
  C:71C3H         LINE#         1010
  C:71C3H         LINE#         1011
  C:71C3H         LINE#         1013
  C:71C8H         LINE#         1014
  C:71CAH         LINE#         1015
  C:71CAH         LINE#         1016
  C:71CAH         LINE#         1017
  C:71CCH         LINE#         1018
  C:71CCH         LINE#         1019
  C:71CCH         LINE#         1020
  C:71CCH         LINE#         1021
  C:71CCH         LINE#         1022
  C:71CEH         LINE#         1023
  C:71CEH         LINE#         1024
  C:71CEH         LINE#         1026
  C:71CEH         LINE#         1027
  C:71D4H         LINE#         1028
  C:71D4H         LINE#         1030
  C:71D4H         LINE#         1032
  C:71DAH         LINE#         1033
  C:71DAH         LINE#         1034
  C:71DFH         LINE#         1035
  C:71E1H         LINE#         1036
  C:71E1H         LINE#         1038
  C:71E1H         LINE#         1039
  C:71E7H         LINE#         1040
  C:71E8H         LINE#         1041
  C:71E8H         LINE#         1042
  -------         ENDPROC       _CHECK_KEY_3KEYNOSTOP
  -------         PROC          _CHECK_KEY_4KEYNOSTOP
  D:0001H         SYMBOL        key1
  D:0025H         SYMBOL        key2
  D:0028H         SYMBOL        key3
  D:002BH         SYMBOL        key4
  C:6EA2H         LINE#         1044
  C:6EA2H         LINE#         1045
  C:6EA2H         LINE#         1046
  C:6EADH         LINE#         1047
  C:6EADH         LINE#         1048
  C:6EADH         LINE#         1049
  C:6EADH         LINE#         1050
  C:6EADH         LINE#         1051
  C:6EADH         LINE#         1053
  C:6EBEH         LINE#         1054
  C:6EBEH         LINE#         1055
  C:6EBEH         LINE#         1056
  C:6EBEH         LINE#         1057
  C:6EBEH         LINE#         1058
  C:6EBEH         LINE#         1060
  C:6ECFH         LINE#         1061
  C:6ECFH         LINE#         1062
  C:6ECFH         LINE#         1063
  C:6ECFH         LINE#         1064
  C:6ECFH         LINE#         1065
  C:6ECFH         LINE#         1067
  C:6EE0H         LINE#         1068
BL51 BANKED LINKER/LOCATER V6.22.2.0                                                  07/15/2022  09:34:05  PAGE 66


  C:6EE0H         LINE#         1069
  C:6EE0H         LINE#         1070
  C:6EE0H         LINE#         1071
  C:6EE0H         LINE#         1072
  C:6EE0H         LINE#         1074
  C:6EE5H         LINE#         1075
  C:6EE7H         LINE#         1076
  C:6EE7H         LINE#         1077
  C:6EE7H         LINE#         1078
  C:6EE9H         LINE#         1079
  C:6EE9H         LINE#         1080
  C:6EE9H         LINE#         1081
  C:6EE9H         LINE#         1082
  C:6EE9H         LINE#         1083
  C:6EEBH         LINE#         1084
  C:6EEBH         LINE#         1085
  C:6EEBH         LINE#         1086
  C:6EEBH         LINE#         1087
  C:6EEBH         LINE#         1088
  C:6EEDH         LINE#         1089
  C:6EEDH         LINE#         1090
  C:6EEDH         LINE#         1092
  C:6EEDH         LINE#         1093
  C:6EF3H         LINE#         1094
  C:6EF3H         LINE#         1096
  C:6EF3H         LINE#         1098
  C:6EF9H         LINE#         1099
  C:6EF9H         LINE#         1100
  C:6EFEH         LINE#         1101
  C:6F00H         LINE#         1102
  C:6F00H         LINE#         1104
  C:6F00H         LINE#         1105
  C:6F06H         LINE#         1106
  C:6F07H         LINE#         1107
  C:6F07H         LINE#         1108
  -------         ENDPROC       _CHECK_KEY_4KEYNOSTOP
  -------         PROC          OTHER_KEYS_COMMON
  C:64CAH         LINE#         1190
  C:64CAH         LINE#         1191
  C:64CAH         LINE#         1192
  C:64D0H         LINE#         1193
  C:64D0H         LINE#         1194
  C:64D8H         LINE#         1195
  C:64DDH         LINE#         1196
  C:64DDH         LINE#         1197
  C:64EEH         LINE#         1198
  C:64EEH         LINE#         1199
  C:64F4H         LINE#         1200
  C:64F4H         LINE#         1201
  C:64F6H         LINE#         1203
  C:64F6H         LINE#         1205
  C:6503H         LINE#         1206
  C:6503H         LINE#         1207
  C:6503H         LINE#         1208
  C:650BH         LINE#         1209
  C:6510H         LINE#         1210
  C:6516H         LINE#         1211
BL51 BANKED LINKER/LOCATER V6.22.2.0                                                  07/15/2022  09:34:05  PAGE 67


  C:651CH         LINE#         1212
  C:651CH         LINE#         1213
  C:6521H         LINE#         1214
  C:6521H         LINE#         1215
  C:6524H         LINE#         1216
  C:652AH         LINE#         1217
  C:652AH         LINE#         1218
  C:6530H         LINE#         1219
  C:6538H         LINE#         1220
  C:6538H         LINE#         1221
  C:653BH         LINE#         1222
  C:6543H         LINE#         1223
  C:6548H         LINE#         1224
  C:654CH         LINE#         1225
  C:654EH         LINE#         1226
  C:6550H         LINE#         1227
  C:6552H         LINE#         1228
  C:6559H         LINE#         1229
  C:6568H         LINE#         1230
  C:6568H         LINE#         1231
  C:6568H         LINE#         1232
  C:656BH         LINE#         1233
  C:656BH         LINE#         1234
  C:656BH         LINE#         1236
  C:6571H         LINE#         1237
  C:6571H         LINE#         1238
  C:6573H         LINE#         1239
  C:6573H         LINE#         1240
  C:6573H         LINE#         1242
  C:6573H         LINE#         1243
  C:6576H         LINE#         1244
  C:6576H         LINE#         1245
  -------         ENDPROC       OTHER_KEYS_COMMON
  -------         PROC          OTHER_TV_KEYS_COMMON
  C:5FBDH         LINE#         1247
  C:5FBDH         LINE#         1248
  C:5FBDH         LINE#         1249
  C:5FC6H         LINE#         1251
  C:5FCCH         LINE#         1252
  C:5FCCH         LINE#         1253
  C:5FDBH         LINE#         1254
  C:5FDBH         LINE#         1255
  C:5FDBH         LINE#         1256
  C:5FDBH         LINE#         1258
  C:5FF3H         LINE#         1259
  C:5FF3H         LINE#         1260
  C:5FF6H         LINE#         1264
  C:5FF6H         LINE#         1269
  C:5FF6H         LINE#         1270
  C:5FF6H         LINE#         1272
  C:600EH         LINE#         1273
  C:600EH         LINE#         1274
  C:6013H         LINE#         1278
  C:601AH         LINE#         1279
  C:601AH         LINE#         1282
  C:601AH         LINE#         1283
  C:601CH         LINE#         1284
BL51 BANKED LINKER/LOCATER V6.22.2.0                                                  07/15/2022  09:34:05  PAGE 68


  C:601CH         LINE#         1285
  C:6021H         LINE#         1286
  C:6021H         LINE#         1287
  C:6021H         LINE#         1288
  C:6021H         LINE#         1289
  C:6032H         LINE#         1290
  C:6032H         LINE#         1291
  C:6040H         LINE#         1292
  C:6040H         LINE#         1293
  C:6043H         LINE#         1295
  C:6043H         LINE#         1296
  C:6050H         LINE#         1297
  C:6050H         LINE#         1298
  C:6050H         LINE#         1299
  C:6058H         LINE#         1300
  C:605DH         LINE#         1301
  C:6063H         LINE#         1302
  C:6069H         LINE#         1303
  C:6069H         LINE#         1305
  C:606FH         LINE#         1307
  C:6074H         LINE#         1308
  C:6074H         LINE#         1309
  C:6077H         LINE#         1310
  C:607DH         LINE#         1311
  C:607DH         LINE#         1312
  C:6083H         LINE#         1313
  C:608BH         LINE#         1314
  C:608BH         LINE#         1315
  C:608EH         LINE#         1316
  C:6096H         LINE#         1317
  C:609BH         LINE#         1318
  C:609FH         LINE#         1319
  C:60A1H         LINE#         1320
  C:60A3H         LINE#         1321
  C:60A5H         LINE#         1322
  C:60ACH         LINE#         1323
  C:60BBH         LINE#         1324
  C:60BBH         LINE#         1325
  C:60BBH         LINE#         1326
  C:60BEH         LINE#         1327
  C:60BEH         LINE#         1328
  C:60BEH         LINE#         1330
  C:60C4H         LINE#         1331
  C:60C4H         LINE#         1332
  C:60C6H         LINE#         1333
  C:60C6H         LINE#         1334
  C:60C6H         LINE#         1336
  C:60C6H         LINE#         1338
  C:60C9H         LINE#         1339
  C:60C9H         LINE#         1340
  -------         ENDPROC       OTHER_TV_KEYS_COMMON
  -------         PROC          _KEY_COMMON_DIGIT
  D:0007H         SYMBOL        digit
  C:7B3CH         LINE#         1342
  C:7B3CH         LINE#         1343
  C:7B3CH         LINE#         1344
  C:7B42H         LINE#         1345
BL51 BANKED LINKER/LOCATER V6.22.2.0                                                  07/15/2022  09:34:05  PAGE 69


  C:7B42H         LINE#         1346
  C:7B45H         LINE#         1347
  C:7B45H         LINE#         1349
  C:7B45H         LINE#         1350
  C:7B48H         LINE#         1351
  C:7B48H         LINE#         1352
  -------         ENDPROC       _KEY_COMMON_DIGIT
  -------         PROC          KEY_0
  C:0006H         LINE#         1354
  C:0006H         LINE#         1355
  C:0006H         LINE#         1356
  -------         ENDPROC       KEY_0
  -------         PROC          KEY_1
  C:000EH         LINE#         1359
  C:000EH         LINE#         1360
  C:000EH         LINE#         1361
  -------         ENDPROC       KEY_1
  -------         PROC          KEY_2
  C:0016H         LINE#         1364
  C:0016H         LINE#         1365
  C:0016H         LINE#         1366
  -------         ENDPROC       KEY_2
  -------         PROC          KEY_3
  C:001EH         LINE#         1369
  C:001EH         LINE#         1370
  C:001EH         LINE#         1371
  -------         ENDPROC       KEY_3
  -------         PROC          KEY_4
  C:0026H         LINE#         1374
  C:0026H         LINE#         1375
  C:0026H         LINE#         1376
  -------         ENDPROC       KEY_4
  -------         PROC          KEY_5
  C:002EH         LINE#         1379
  C:002EH         LINE#         1380
  C:002EH         LINE#         1381
  -------         ENDPROC       KEY_5
  -------         PROC          KEY_6
  C:0036H         LINE#         1384
  C:0036H         LINE#         1385
  C:0036H         LINE#         1386
  -------         ENDPROC       KEY_6
  -------         PROC          KEY_7
  C:005EH         LINE#         1389
  C:005EH         LINE#         1390
  C:005EH         LINE#         1391
  -------         ENDPROC       KEY_7
  -------         PROC          KEY_8
  C:0076H         LINE#         1394
  C:0076H         LINE#         1395
  C:0076H         LINE#         1396
  -------         ENDPROC       KEY_8
  -------         PROC          KEY_9
  C:007EH         LINE#         1399
  C:007EH         LINE#         1400
  C:007EH         LINE#         1401
  -------         ENDPROC       KEY_9
BL51 BANKED LINKER/LOCATER V6.22.2.0                                                  07/15/2022  09:34:05  PAGE 70


  -------         PROC          AUTO_SEARCH_COMMON
  C:74C7H         LINE#         1408
  C:74C7H         LINE#         1409
  C:74C7H         LINE#         1410
  C:74CFH         LINE#         1411
  C:74CFH         LINE#         1412
  C:74D2H         LINE#         1414
  C:74DAH         LINE#         1415
  C:74DCH         LINE#         1419
  C:74EAH         LINE#         1420
  C:74EAH         LINE#         1421
  C:74F0H         LINE#         1423
  C:74F8H         LINE#         1424
  C:74FCH         LINE#         1426
  C:7501H         LINE#         1427
  C:7501H         LINE#         1429
  C:7501H         LINE#         1430
  C:7504H         LINE#         1431
  C:7504H         LINE#         1432
  -------         ENDPROC       AUTO_SEARCH_COMMON
  -------         PROC          KEY_CHUP
  C:7BE1H         LINE#         1434
  C:7BE1H         LINE#         1435
  C:7BE1H         LINE#         1436
  -------         ENDPROC       KEY_CHUP
  -------         PROC          KEY_CHDOWN
  C:7BE4H         LINE#         1438
  C:7BE4H         LINE#         1439
  C:7BE4H         LINE#         1440
  -------         ENDPROC       KEY_CHDOWN
  -------         PROC          KEY_SEARCH
  C:7AD0H         LINE#         1443
  C:7AD0H         LINE#         1444
  C:7AD0H         LINE#         1445
  C:7AD8H         LINE#         1446
  C:7AD8H         LINE#         1447
  C:7ADBH         LINE#         1448
  C:7ADEH         LINE#         1449
  C:7ADEH         LINE#         1451
  C:7AE1H         LINE#         1452
  -------         ENDPROC       KEY_SEARCH
  -------         PROC          AVSHIFTMODE_KEYS_COMMON
  C:6B18H         LINE#         1455
  C:6B18H         LINE#         1456
  C:6B18H         LINE#         1457
  C:6B1EH         LINE#         1458
  C:6B1EH         LINE#         1459
  C:6B24H         LINE#         1460
  C:6B24H         LINE#         1461
  C:6B2EH         LINE#         1462
  C:6B2EH         LINE#         1463
  C:6B34H         LINE#         1464
  C:6B43H         LINE#         1465
  C:6B4BH         LINE#         1466
  C:6B53H         LINE#         1468
  C:6B58H         LINE#         1471
  C:6B5EH         LINE#         1472
BL51 BANKED LINKER/LOCATER V6.22.2.0                                                  07/15/2022  09:34:05  PAGE 71


  C:6B5EH         LINE#         1473
  C:6B76H         LINE#         1474
  C:6B76H         LINE#         1479
  C:6B7DH         LINE#         1480
  C:6B7FH         LINE#         1482
  C:6B82H         LINE#         1483
  C:6B84H         LINE#         1486
  C:6B89H         LINE#         1488
  C:6B90H         LINE#         1489
  C:6B90H         LINE#         1494
  C:6B90H         LINE#         1496
  C:6B92H         LINE#         1498
  C:6B95H         LINE#         1499
  -------         ENDPROC       AVSHIFTMODE_KEYS_COMMON
  -------         PROC          KEY_OK
  C:775EH         LINE#         1502
  C:775EH         LINE#         1503
  C:775EH         LINE#         1504
  C:7771H         LINE#         1505
  C:7771H         LINE#         1506
  C:7777H         LINE#         1507
  C:777AH         LINE#         1509
  C:777DH         LINE#         1510
  C:777DH         LINE#         1512
  C:777DH         LINE#         1514
  C:7780H         LINE#         1515
  C:7785H         LINE#         1519
  C:7785H         LINE#         1520
  -------         ENDPROC       KEY_OK
  -------         PROC          KEY_ALLPOWER
  C:6577H         LINE#         1522
  C:6577H         LINE#         1523
  C:6577H         LINE#         1524
  C:6580H         LINE#         1525
  C:6580H         LINE#         1526
  C:658AH         LINE#         1529
  C:6590H         LINE#         1531
  C:6596H         LINE#         1532
  C:65A5H         LINE#         1533
  C:65ADH         LINE#         1535
  C:65B3H         LINE#         1536
  C:65C6H         LINE#         1537
  C:65C6H         LINE#         1539
  C:65CBH         LINE#         1540
  C:65D3H         LINE#         1541
  C:65D7H         LINE#         1542
  C:65DDH         LINE#         1543
  C:65DFH         LINE#         1545
  C:65DFH         LINE#         1547
  C:65E5H         LINE#         1549
  C:65E5H         LINE#         1550
  C:65EAH         LINE#         1551
  C:65EAH         LINE#         1552
  C:65EAH         LINE#         1555
  C:65F1H         LINE#         1558
  C:65F6H         LINE#         1559
  C:6605H         LINE#         1560
BL51 BANKED LINKER/LOCATER V6.22.2.0                                                  07/15/2022  09:34:05  PAGE 72


  C:660DH         LINE#         1563
  C:6613H         LINE#         1564
  C:6618H         LINE#         1570
  C:6618H         LINE#         1572
  C:661BH         LINE#         1573
  -------         ENDPROC       KEY_ALLPOWER
  -------         PROC          KEY_TVPOWER
  C:76ABH         LINE#         1575
  C:76ABH         LINE#         1576
  C:76ABH         LINE#         1577
  C:76B7H         LINE#         1578
  C:76BDH         LINE#         1580
  C:76C3H         LINE#         1581
  C:76C3H         LINE#         1582
  C:76C8H         LINE#         1583
  C:76D7H         LINE#         1584
  C:76D7H         LINE#         1586
  -------         ENDPROC       KEY_TVPOWER
  -------         PROC          KEY_TVVOLUP
  C:78EFH         LINE#         1589
  C:78EFH         LINE#         1590
  C:78EFH         LINE#         1591
  C:78F5H         LINE#         1592
  C:78F5H         LINE#         1593
  C:78FAH         LINE#         1594
  C:7909H         LINE#         1595
  C:7909H         LINE#         1597
  -------         ENDPROC       KEY_TVVOLUP
  -------         PROC          KEY_TVVOLDOWN
  C:790CH         LINE#         1599
  C:790CH         LINE#         1600
  C:790CH         LINE#         1601
  C:7912H         LINE#         1602
  C:7912H         LINE#         1603
  C:7917H         LINE#         1604
  C:7926H         LINE#         1605
  C:7926H         LINE#         1607
  -------         ENDPROC       KEY_TVVOLDOWN
  -------         PROC          KEY_INPUT
  C:7505H         LINE#         1609
  C:7505H         LINE#         1610
  C:7505H         LINE#         1611
  C:750BH         LINE#         1612
  C:750BH         LINE#         1613
  C:7510H         LINE#         1614
  C:751FH         LINE#         1615
  C:751FH         LINE#         1617
  C:7522H         LINE#         1620
  C:7528H         LINE#         1621
  C:7528H         LINE#         1622
  C:752FH         LINE#         1623
  C:752FH         LINE#         1625
  C:752FH         LINE#         1626
  C:7535H         LINE#         1627
  C:753CH         LINE#         1628
  C:7541H         LINE#         1629
  C:7541H         LINE#         1631
BL51 BANKED LINKER/LOCATER V6.22.2.0                                                  07/15/2022  09:34:05  PAGE 73


  -------         ENDPROC       KEY_INPUT
  -------         PROC          KEY_MENU
  C:7BE7H         LINE#         1633
  C:7BE7H         LINE#         1634
  C:7BE7H         LINE#         1635
  -------         ENDPROC       KEY_MENU
  -------         PROC          KEY_NAVI_UP
  C:7BEAH         LINE#         1638
  C:7BEAH         LINE#         1639
  C:7BEAH         LINE#         1641
  -------         ENDPROC       KEY_NAVI_UP
  -------         PROC          KEY_NAVI_DOWN
  C:7BEDH         LINE#         1646
  C:7BEDH         LINE#         1647
  C:7BEDH         LINE#         1649
  -------         ENDPROC       KEY_NAVI_DOWN
  -------         PROC          KEY_NAVI_LEFT
  C:7BF0H         LINE#         1654
  C:7BF0H         LINE#         1655
  C:7BF0H         LINE#         1657
  -------         ENDPROC       KEY_NAVI_LEFT
  -------         PROC          KEY_NAVI_RIGHT
  C:7BF3H         LINE#         1662
  C:7BF3H         LINE#         1663
  C:7BF3H         LINE#         1665
  -------         ENDPROC       KEY_NAVI_RIGHT
  -------         PROC          KEY_STBPOWER
  C:7BF6H         LINE#         1671
  C:7BF6H         LINE#         1672
  C:7BF6H         LINE#         1673
  -------         ENDPROC       KEY_STBPOWER
  -------         PROC          KEY_VOLUP
  C:7BF9H         LINE#         1675
  C:7BF9H         LINE#         1676
  C:7BF9H         LINE#         1677
  -------         ENDPROC       KEY_VOLUP
  -------         PROC          KEY_VOLDOWN
  C:7BFCH         LINE#         1679
  C:7BFCH         LINE#         1680
  C:7BFCH         LINE#         1681
  -------         ENDPROC       KEY_VOLDOWN
  -------         PROC          KEY_MUTE
  C:7BFFH         LINE#         1683
  C:7BFFH         LINE#         1684
  C:7BFFH         LINE#         1685
  -------         ENDPROC       KEY_MUTE
  -------         PROC          KEY_MOVIE
  C:7C02H         LINE#         1687
  C:7C02H         LINE#         1688
  C:7C02H         LINE#         1689
  -------         ENDPROC       KEY_MOVIE
  -------         PROC          KEY_REVIEW
  C:7C05H         LINE#         1691
  C:7C05H         LINE#         1692
  C:7C05H         LINE#         1693
  -------         ENDPROC       KEY_REVIEW
  -------         PROC          KEY_CHGUIDE
BL51 BANKED LINKER/LOCATER V6.22.2.0                                                  07/15/2022  09:34:05  PAGE 74


  C:7C08H         LINE#         1695
  C:7C08H         LINE#         1696
  C:7C08H         LINE#         1697
  -------         ENDPROC       KEY_CHGUIDE
  -------         PROC          KEY_OPTION
  C:7C0BH         LINE#         1699
  C:7C0BH         LINE#         1700
  C:7C0BH         LINE#         1701
  -------         ENDPROC       KEY_OPTION
  -------         PROC          KEY_BACK
  C:7C0EH         LINE#         1703
  C:7C0EH         LINE#         1704
  C:7C0EH         LINE#         1705
  -------         ENDPROC       KEY_BACK
  -------         PROC          KEY_EXIT
  C:7C11H         LINE#         1707
  C:7C11H         LINE#         1708
  C:7C11H         LINE#         1709
  -------         ENDPROC       KEY_EXIT
  -------         PROC          KEY_REW
  C:7C14H         LINE#         1711
  C:7C14H         LINE#         1712
  C:7C14H         LINE#         1713
  -------         ENDPROC       KEY_REW
  -------         PROC          KEY_PLAYPAUSE
  C:7C17H         LINE#         1715
  C:7C17H         LINE#         1716
  C:7C17H         LINE#         1717
  -------         ENDPROC       KEY_PLAYPAUSE
  -------         PROC          KEY_STOP
  C:7C1AH         LINE#         1719
  C:7C1AH         LINE#         1720
  C:7C1AH         LINE#         1721
  -------         ENDPROC       KEY_STOP
  -------         PROC          KEY_FF
  C:7C1DH         LINE#         1723
  C:7C1DH         LINE#         1724
  C:7C1DH         LINE#         1725
  -------         ENDPROC       KEY_FF
  -------         PROC          KEY_STAR
  C:7C20H         LINE#         1727
  C:7C20H         LINE#         1728
  C:7C20H         LINE#         1729
  -------         ENDPROC       KEY_STAR
  -------         PROC          KEY_SHARP
  C:7C23H         LINE#         1731
  C:7C23H         LINE#         1732
  C:7C23H         LINE#         1733
  -------         ENDPROC       KEY_SHARP
  -------         PROC          KEY_DELETE
  C:7C26H         LINE#         1735
  C:7C26H         LINE#         1736
  C:7C26H         LINE#         1737
  -------         ENDPROC       KEY_DELETE
  -------         PROC          KEY_HANENG
  C:7C29H         LINE#         1739
  C:7C29H         LINE#         1740
BL51 BANKED LINKER/LOCATER V6.22.2.0                                                  07/15/2022  09:34:05  PAGE 75


  C:7C29H         LINE#         1741
  -------         ENDPROC       KEY_HANENG
  -------         PROC          KEY_RED
  C:7C2CH         LINE#         1743
  C:7C2CH         LINE#         1744
  C:7C2CH         LINE#         1745
  -------         ENDPROC       KEY_RED
  -------         PROC          KEY_GREEN
  C:7C2FH         LINE#         1747
  C:7C2FH         LINE#         1748
  C:7C2FH         LINE#         1749
  -------         ENDPROC       KEY_GREEN
  -------         PROC          KEY_YELLOW
  C:7C32H         LINE#         1751
  C:7C32H         LINE#         1752
  C:7C32H         LINE#         1753
  -------         ENDPROC       KEY_YELLOW
  -------         PROC          KEY_BLUE
  C:7C35H         LINE#         1755
  C:7C35H         LINE#         1756
  C:7C35H         LINE#         1757
  -------         ENDPROC       KEY_BLUE
  -------         PROC          KEY_MYMENU
  C:7C38H         LINE#         1759
  C:7C38H         LINE#         1760
  C:7C38H         LINE#         1761
  -------         ENDPROC       KEY_MYMENU
  -------         PROC          KEY_SHOPPING
  C:7C3BH         LINE#         1763
  C:7C3BH         LINE#         1764
  C:7C3BH         LINE#         1765
  -------         ENDPROC       KEY_SHOPPING
  -------         PROC          KEY_WIDGET
  C:7C3EH         LINE#         1767
  C:7C3EH         LINE#         1768
  C:7C3EH         LINE#         1769
  -------         ENDPROC       KEY_WIDGET
  -------         PROC          KEY_APPSTORE
  C:7C41H         LINE#         1771
  C:7C41H         LINE#         1772
  C:7C41H         LINE#         1773
  -------         ENDPROC       KEY_APPSTORE
  -------         ENDMOD        FUNCTION_KEY

  -------         MODULE        HAL
  C:0000H         SYMBOL        _ICE_DUMMY_
  D:0080H         PUBLIC        P0
  D:0090H         PUBLIC        P1
  D:00A0H         PUBLIC        P2
  D:00B0H         PUBLIC        P3
  D:0084H         PUBLIC        WDTCLR0
  C:781DH         PUBLIC        Keyscan_Interrupt_Off
  D:00EBH         PUBLIC        WDTCLR1
  D:00A9H         PUBLIC        EIE1
  B:00A8H.7       PUBLIC        EA
  D:00AAH         PUBLIC        EIE2
  B:00C8H.0       PUBLIC        T2CPNRL
BL51 BANKED LINKER/LOCATER V6.22.2.0                                                  07/15/2022  09:34:05  PAGE 76


  D:00A8H         PUBLIC        IE
  C:7B62H         PUBLIC        ClrWDT
  C:7AF3H         PUBLIC        Timer1_1secStart
  C:70EDH         PUBLIC        stop_define
  D:00B8H         PUBLIC        IP
  C:77ACH         PUBLIC        SystemInit
  D:00CBH         PUBLIC        RCAP2H
  C:6B96H         PUBLIC        ram_check
  C:77D2H         PUBLIC        Keyscan_Interrupt_On
  D:00CAH         PUBLIC        RCAP2L
  C:7867H         PUBLIC        FactoryDefault
  C:7842H         PUBLIC        Timer2_Start
  C:7BCAH         PUBLIC        _StuckKeyTimer_Start
  D:0089H         PUBLIC        TMOD
  C:7708H         PUBLIC        InitPort
  D:00E0H         PUBLIC        ACC
  D:00A5H         PUBLIC        LVDCON
  B:00A8H.1       PUBLIC        ET0
  B:0088H.5       PUBLIC        TF0
  B:00A8H.3       PUBLIC        ET1
  B:00A8H.5       PUBLIC        ET2
  D:00AFH         PUBLIC        CP0VRCON
  C:7B8FH         PUBLIC        _TickTimer_65msStart
  D:00E8H         PUBLIC        T168CON
  B:0088H.4       PUBLIC        TR0
  D:00A6H         PUBLIC        LVRCON
  B:0088H.6       PUBLIC        TR1
  B:00C8H.2       PUBLIC        TR2
  D:00FCH         PUBLIC        P0MDH
  D:00FDH         PUBLIC        P1MDH
  D:00FEH         PUBLIC        P2MDH
  C:7945H         PUBLIC        crt_init_IR
  D:00ECH         PUBLIC        P0MDL
  D:00EDH         PUBLIC        P1MDL
  D:00EEH         PUBLIC        P2MDL
  D:00EFH         PUBLIC        P3MDL
  D:00C0H         PUBLIC        IIC0CON
  B:00C8H.1       PUBLIC        T2CNT
  C:7AE2H         PUBLIC        SetDeltaV
  C:7ABDH         PUBLIC        Timer0_65msStart
  C:674EH         PUBLIC        reset_define
  C:7B49H         PUBLIC        ExtInt_init
  -------         PROC          SYSTEMINIT
  C:77ACH         LINE#         21
  C:77ACH         LINE#         22
  C:77ACH         LINE#         24
  C:77B1H         LINE#         27
  C:77B7H         LINE#         34
  C:77BBH         LINE#         38
  C:77C2H         LINE#         45
  C:77C5H         LINE#         46
  C:77CAH         LINE#         47
  C:77CFH         LINE#         49
  -------         ENDPROC       SYSTEMINIT
  -------         PROC          KEYSCAN_INTERRUPT_ON
  C:77D2H         LINE#         71
  C:77D2H         LINE#         72
BL51 BANKED LINKER/LOCATER V6.22.2.0                                                  07/15/2022  09:34:05  PAGE 77


  C:77D2H         LINE#         80
  C:77D9H         LINE#         85
  C:77DDH         LINE#         94
  C:77E2H         LINE#         95
  C:77E9H         LINE#         100
  C:77F0H         LINE#         101
  C:77F7H         LINE#         102
  -------         ENDPROC       KEYSCAN_INTERRUPT_ON
  -------         PROC          KEYSCAN_INTERRUPT_OFF
  C:781DH         LINE#         104
  C:781DH         LINE#         105
  C:781DH         LINE#         113
  C:7823H         LINE#         118
  C:7827H         LINE#         127
  C:782CH         LINE#         128
  C:7833H         LINE#         133
  C:783AH         LINE#         134
  C:7841H         LINE#         135
  -------         ENDPROC       KEYSCAN_INTERRUPT_OFF
  -------         PROC          CRT_INIT_IR
  C:7945H         LINE#         142
  C:7945H         LINE#         143
  C:7945H         LINE#         144
  C:794AH         LINE#         145
  C:794FH         LINE#         146
  C:7954H         LINE#         147
  C:7959H         LINE#         148
  C:795CH         LINE#         149
  -------         ENDPROC       CRT_INIT_IR
  -------         PROC          CLRWDT
  C:7B62H         LINE#         155
  C:7B62H         LINE#         156
  C:7B62H         LINE#         157
  C:7B65H         LINE#         158
  C:7B67H         LINE#         159
  C:7B6AH         LINE#         160
  C:7B6DH         LINE#         161
  -------         ENDPROC       CLRWDT
  -------         PROC          SETDELTAV
  C:7AE2H         LINE#         167
  C:7AE2H         LINE#         168
  C:7AE2H         LINE#         171
  C:7AE5H         LINE#         179
  C:7AE8H         LINE#         181
  C:7AEFH         LINE#         185
  C:7AF2H         LINE#         187
  -------         ENDPROC       SETDELTAV
  -------         PROC          EXTINT_INIT
  C:7B49H         LINE#         190
  C:7B49H         LINE#         191
  C:7B49H         LINE#         192
  C:7B4BH         LINE#         193
  C:7B4EH         LINE#         194
  C:7B50H         LINE#         195
  C:7B52H         LINE#         197
  C:7B55H         LINE#         198
  -------         ENDPROC       EXTINT_INIT
BL51 BANKED LINKER/LOCATER V6.22.2.0                                                  07/15/2022  09:34:05  PAGE 78


  -------         PROC          INITPORT
  C:7708H         LINE#         200
  C:7708H         LINE#         201
  C:7708H         LINE#         219
  C:770BH         LINE#         222
  C:770EH         LINE#         223
  C:7711H         LINE#         231
  C:7714H         LINE#         232
  C:7717H         LINE#         235
  C:771AH         LINE#         236
  C:771DH         LINE#         238
  C:7720H         LINE#         245
  C:7723H         LINE#         248
  C:7726H         LINE#         256
  C:7729H         LINE#         259
  C:772CH         LINE#         263
  C:7732H         LINE#         265
  C:7733H         LINE#         267
  -------         ENDPROC       INITPORT
  -------         PROC          STOP_DEFINE
  C:70EDH         LINE#         269
  C:70EDH         LINE#         270
  C:70EDH         LINE#         271
  C:70F2H         LINE#         272
  C:70F6H         LINE#         273
  C:70FCH         LINE#         274
  C:7102H         LINE#         275
  C:7106H         LINE#         279
  C:710BH         LINE#         281
  C:710FH         LINE#         282
  C:7115H         LINE#         283
  C:7119H         LINE#         284
  C:711DH         LINE#         286
  C:7122H         LINE#         290
  C:7126H         LINE#         294
  C:7129H         LINE#         295
  C:712CH         LINE#         299
  C:712FH         LINE#         301
  C:7133H         LINE#         302
  C:7136H         LINE#         304
  C:713AH         LINE#         305
  C:713EH         LINE#         306
  C:7142H         LINE#         308
  -------         ENDPROC       STOP_DEFINE
  -------         PROC          RAM_CHECK
  -------         DO            
  D:0023H         SYMBOL        retry
  D:0024H         SYMBOL        ram_broken
  -------         ENDDO         
  C:6B96H         LINE#         311
  C:6B96H         LINE#         312
  C:6B96H         LINE#         313
  C:6B99H         LINE#         314
  C:6B9CH         LINE#         318
  C:6B9FH         LINE#         320
  C:6BB4H         LINE#         321
  C:6BB4H         LINE#         322
BL51 BANKED LINKER/LOCATER V6.22.2.0                                                  07/15/2022  09:34:05  PAGE 79


  C:6BB8H         LINE#         323
  C:6BB8H         LINE#         324
  C:6BBDH         LINE#         325
  C:6BC0H         LINE#         327
  C:6BD5H         LINE#         328
  C:6BD5H         LINE#         329
  C:6BD7H         LINE#         330
  C:6BD9H         LINE#         331
  C:6BDDH         LINE#         332
  C:6BDDH         LINE#         333
  C:6BE0H         LINE#         334
  C:6BE0H         LINE#         335
  C:6BE0H         LINE#         338
  C:6BFCH         LINE#         343
  C:6BFFH         LINE#         344
  C:6C05H         LINE#         345
  C:6C08H         LINE#         347
  C:6C0CH         LINE#         348
  C:6C0CH         LINE#         349
  C:6C0FH         LINE#         350
  C:6C12H         LINE#         351
  C:6C12H         LINE#         353
  -------         ENDPROC       RAM_CHECK
  -------         PROC          RESET_DEFINE
  -------         DO            
  D:0021H         SYMBOL        retry
  D:0022H         SYMBOL        ram_broken
  -------         ENDDO         
  C:674EH         LINE#         357
  C:674EH         LINE#         358
  C:674EH         LINE#         359
  C:6751H         LINE#         360
  C:6754H         LINE#         362
  C:6758H         LINE#         363
  C:675CH         LINE#         364
  C:6762H         LINE#         365
  C:6768H         LINE#         366
  C:676DH         LINE#         367
  C:6773H         LINE#         368
  C:6779H         LINE#         369
  C:677DH         LINE#         370
  C:6781H         LINE#         371
  C:6787H         LINE#         372
  C:678BH         LINE#         373
  C:678FH         LINE#         374
  C:6795H         LINE#         376
  C:679AH         LINE#         378
  C:679EH         LINE#         379
  C:67A2H         LINE#         380
  C:67A8H         LINE#         381
  C:67ACH         LINE#         383
  C:67B1H         LINE#         390
  C:67B4H         LINE#         392
  C:67B7H         LINE#         393
  C:67BFH         LINE#         396
  C:67C5H         LINE#         399
  C:67C8H         LINE#         401
BL51 BANKED LINKER/LOCATER V6.22.2.0                                                  07/15/2022  09:34:05  PAGE 80


  C:67CBH         LINE#         403
  C:67D1H         LINE#         404
  C:67DEH         LINE#         405
  -------         ENDPROC       RESET_DEFINE
  -------         PROC          FACTORYDEFAULT
  C:7867H         LINE#         408
  C:7867H         LINE#         409
  C:7867H         LINE#         414
  C:786CH         LINE#         415
  C:7870H         LINE#         417
  C:7877H         LINE#         419
  C:7880H         LINE#         424
  C:7885H         LINE#         425
  C:7888H         LINE#         427
  -------         ENDPROC       FACTORYDEFAULT
  -------         PROC          TIMER0_65MSSTART
  C:7ABDH         LINE#         430
  C:7ABDH         LINE#         431
  C:7ABDH         LINE#         432
  C:7AC0H         LINE#         439
  C:7AC7H         LINE#         446
  C:7AC9H         LINE#         448
  C:7ACDH         LINE#         449
  C:7ACFH         LINE#         450
  -------         ENDPROC       TIMER0_65MSSTART
  -------         PROC          TIMER1_1SECSTART
  C:7AF3H         LINE#         452
  C:7AF3H         LINE#         453
  C:7AF3H         LINE#         455
  C:7AF6H         LINE#         462
  C:7AFDH         LINE#         469
  C:7B01H         LINE#         470
  C:7B03H         LINE#         471
  -------         ENDPROC       TIMER1_1SECSTART
  -------         PROC          TIMER2_START
  C:7842H         LINE#         473
  C:7842H         LINE#         474
  C:7842H         LINE#         476
  C:7844H         LINE#         477
  C:7846H         LINE#         483
  C:784CH         LINE#         489
  C:7852H         LINE#         490
  C:7852H         LINE#         491
  C:7855H         LINE#         492
  C:7855H         LINE#         493
  C:7857H         LINE#         495
  C:7857H         LINE#         496
  C:785AH         LINE#         497
  C:785DH         LINE#         498
  C:785DH         LINE#         501
  C:7860H         LINE#         503
  C:7864H         LINE#         504
  C:7866H         LINE#         505
  -------         ENDPROC       TIMER2_START
  -------         PROC          _TICKTIMER_65MSSTART
  D:0006H         SYMBOL        time
  C:7B8FH         LINE#         508
BL51 BANKED LINKER/LOCATER V6.22.2.0                                                  07/15/2022  09:34:05  PAGE 81


  C:7B8FH         LINE#         509
  C:7B8FH         LINE#         510
  C:7B97H         LINE#         513
  -------         ENDPROC       _TICKTIMER_65MSSTART
  -------         PROC          _STUCKKEYTIMER_START
  D:0007H         SYMBOL        time
  C:7BCAH         LINE#         527
  C:7BCAH         LINE#         528
  C:7BCAH         LINE#         529
  C:7BCFH         LINE#         531
  -------         ENDPROC       _STUCKKEYTIMER_START
  -------         ENDMOD        HAL

  -------         MODULE        MAIN
  C:0000H         SYMBOL        _ICE_DUMMY_
  D:0080H         PUBLIC        P0
  D:0090H         PUBLIC        P1
  D:00A0H         PUBLIC        P2
  D:00B0H         PUBLIC        P3
  B:00A8H.7       PUBLIC        EA
  C:7C86H         PUBLIC        KBI_Interrupt
  C:7C7BH         PUBLIC        External_Interrupt_0
  C:7C7CH         PUBLIC        External_Interrupt_1
  C:7C84H         PUBLIC        External_Interrupt_2
  C:7C85H         PUBLIC        External_Interrupt_3
  C:7A17H         PUBLIC        Stop_Mode
  D:0095H         PUBLIC        WPKEY
  C:7C80H         PUBLIC        LVD_Interrupt
  C:7C83H         PUBLIC        CRT_Interrupt
  C:7C7EH         PUBLIC        SPI_Interrupt
  C:7C7DH         PUBLIC        UART0_Interrupt
  D:00CBH         PUBLIC        RCAP2H
  D:00CAH         PUBLIC        RCAP2L
  C:7B21H         PUBLIC        main
  D:0087H         PUBLIC        PCON
  C:79B2H         PUBLIC        Spectial_F0_High_Envelop
  D:00E4H         PUBLIC        CRTDATA0
  D:00E5H         PUBLIC        CRTDATA1
  D:00E0H         PUBLIC        ACC
  B:00A8H.3       PUBLIC        ET1
  C:7C82H         PUBLIC        Comp_Out_FE_Interrupt
  B:00C8H.7       PUBLIC        TF2
  D:00E8H         PUBLIC        T168CON
  D:00A6H         PUBLIC        LVRCON
  C:7C81H         PUBLIC        Comp_Out_RE_Interrupt
  B:0088H.6       PUBLIC        TR1
  D:00C0H         PUBLIC        IIC0CON
  C:6A99H         PUBLIC        Timer0_Interrupt
  C:6CF5H         PUBLIC        Timer1_Interrupt
  C:2DD2H         PUBLIC        Timer2_Interrupt
  C:7C7FH         PUBLIC        I2C_Interrupt
  -------         PROC          MAIN
  C:7B21H         LINE#         21
  C:7B21H         LINE#         22
  C:7B21H         LINE#         23
  C:7B23H         LINE#         25
  C:7B26H         LINE#         26
BL51 BANKED LINKER/LOCATER V6.22.2.0                                                  07/15/2022  09:34:05  PAGE 82


  C:7B29H         LINE#         27
  C:7B2CH         LINE#         28
  -------         ENDPROC       MAIN
  -------         PROC          STOP_MODE
  C:7A17H         LINE#         39
  C:7A17H         LINE#         40
  C:7A17H         LINE#         41
  C:7A19H         LINE#         47
  C:7A20H         LINE#         48
  C:7A20H         LINE#         49
  C:7A23H         LINE#         51
  C:7A26H         LINE#         52
  C:7A26H         LINE#         57
  C:7A29H         LINE#         58
  C:7A2CH         LINE#         62
  C:7A2DH         LINE#         63
  C:7A2EH         LINE#         64
  -------         ENDPROC       STOP_MODE
  -------         PROC          EXTERNAL_INTERRUPT_0
  C:7C7BH         LINE#         67
  C:7C7BH         LINE#         69
  -------         ENDPROC       EXTERNAL_INTERRUPT_0
  -------         PROC          TIMER0_INTERRUPT
  C:6A99H         LINE#         71
  C:6AA1H         LINE#         73
  C:6AB9H         LINE#         75
  C:6AD1H         LINE#         77
  C:6AE9H         LINE#         80
  C:6AF3H         LINE#         81
  C:6B01H         LINE#         83
  C:6B0BH         LINE#         84
  C:6B0FH         LINE#         87
  -------         ENDPROC       TIMER0_INTERRUPT
  -------         PROC          EXTERNAL_INTERRUPT_1
  C:7C7CH         LINE#         89
  C:7C7CH         LINE#         91
  -------         ENDPROC       EXTERNAL_INTERRUPT_1
  -------         PROC          TIMER1_INTERRUPT
  C:6CF5H         LINE#         94
  C:6D12H         LINE#         97
  C:6D18H         LINE#         98
  C:6D18H         LINE#         101
  C:6D1EH         LINE#         102
  C:6D1EH         LINE#         103
  C:6D20H         LINE#         104
  C:6D22H         LINE#         106
  C:6D22H         LINE#         107
  C:6D26H         LINE#         108
  C:6D29H         LINE#         109
  C:6D2EH         LINE#         110
  C:6D33H         LINE#         111
  C:6D39H         LINE#         112
  C:6D3EH         LINE#         113
  C:6D44H         LINE#         114
  C:6D47H         LINE#         115
  C:6D47H         LINE#         117
  C:6D47H         LINE#         148
BL51 BANKED LINKER/LOCATER V6.22.2.0                                                  07/15/2022  09:34:05  PAGE 83


  -------         ENDPROC       TIMER1_INTERRUPT
  -------         PROC          UART0_INTERRUPT
  C:7C7DH         LINE#         150
  C:7C7DH         LINE#         152
  -------         ENDPROC       UART0_INTERRUPT
  -------         PROC          SPECTIAL_F0_HIGH_ENVELOP
  C:79B2H         LINE#         154
  C:79B2H         LINE#         155
  C:79B2H         LINE#         156
  C:79B5H         LINE#         157
  C:79BDH         LINE#         158
  C:79C2H         LINE#         160
  C:79C9H         LINE#         161
  C:79CCH         LINE#         162
  -------         ENDPROC       SPECTIAL_F0_HIGH_ENVELOP
  -------         PROC          TIMER2_INTERRUPT
  C:2DD2H         LINE#         164
  C:2DDFH         LINE#         167
  C:2DE9H         LINE#         168
  C:2DE9H         LINE#         170
  C:2DF4H         LINE#         171
  C:2DF4H         LINE#         172
  C:2DFAH         LINE#         173
  C:2DFAH         LINE#         174
  C:2E02H         LINE#         175
  C:2E02H         LINE#         176
  C:2E03H         LINE#         177
  C:2E06H         LINE#         178
  C:2E08H         LINE#         183
  C:2E08H         LINE#         184
  C:2E10H         LINE#         185
  C:2E10H         LINE#         186
  C:2E16H         LINE#         187
  C:2E19H         LINE#         188
  C:2E19H         LINE#         189
  C:2E19H         LINE#         191
  C:2E33H         LINE#         192
  C:2E33H         LINE#         193
  C:2E42H         LINE#         194
  C:2E51H         LINE#         195
  C:2E5EH         LINE#         196
  C:2E69H         LINE#         197
  C:2E6DH         LINE#         199
  C:2E6FH         LINE#         200
  C:2E75H         LINE#         201
  C:2E79H         LINE#         202
  C:2E7CH         LINE#         204
  C:2E7CH         LINE#         205
  C:2E9DH         LINE#         206
  C:2ED9H         LINE#         207
  C:2EE3H         LINE#         208
  C:2EFBH         LINE#         209
  C:2F00H         LINE#         210
  C:2F00H         LINE#         212
  C:2F00H         LINE#         213
  C:2F00H         LINE#         214
  C:2F03H         LINE#         217
BL51 BANKED LINKER/LOCATER V6.22.2.0                                                  07/15/2022  09:34:05  PAGE 84


  C:2F03H         LINE#         218
  C:2F0BH         LINE#         219
  C:2F0EH         LINE#         221
  C:2F15H         LINE#         222
  C:2F18H         LINE#         224
  C:2F22H         LINE#         225
  C:2F27H         LINE#         227
  C:2F29H         LINE#         230
  C:2F2FH         LINE#         231
  C:2F2FH         LINE#         232
  C:2F38H         LINE#         233
  C:2F50H         LINE#         234
  C:2F50H         LINE#         236
  C:2F58H         LINE#         237
  C:2F58H         LINE#         238
  C:2F59H         LINE#         239
  C:2F62H         LINE#         240
  C:2F7AH         LINE#         241
  C:2F7AH         LINE#         244
  C:2F94H         LINE#         245
  C:2F94H         LINE#         246
  C:2FA3H         LINE#         247
  C:2FB2H         LINE#         248
  C:2FBFH         LINE#         249
  C:2FC5H         LINE#         250
  C:2FC8H         LINE#         252
  C:2FC8H         LINE#         253
  C:2FE9H         LINE#         254
  C:3025H         LINE#         255
  C:302FH         LINE#         256
  C:3047H         LINE#         257
  C:304CH         LINE#         258
  C:304CH         LINE#         260
  C:304CH         LINE#         261
  C:304CH         LINE#         262
  C:304CH         LINE#         263
  C:304FH         LINE#         266
  C:304FH         LINE#         268
  C:305AH         LINE#         269
  C:305AH         LINE#         270
  C:307BH         LINE#         272
  C:3083H         LINE#         273
  C:3083H         LINE#         274
  C:3084H         LINE#         275
  C:3085H         LINE#         276
  C:3085H         LINE#         278
  C:309BH         LINE#         279
  C:30A1H         LINE#         281
  C:30A8H         LINE#         283
  C:30C2H         LINE#         286
  C:30E2H         LINE#         288
  C:3101H         LINE#         289
  C:313DH         LINE#         291
  C:315AH         LINE#         293
  C:316AH         LINE#         294
  C:3174H         LINE#         295
  C:3174H         LINE#         297
BL51 BANKED LINKER/LOCATER V6.22.2.0                                                  07/15/2022  09:34:05  PAGE 85


  C:317CH         LINE#         298
  C:3181H         LINE#         300
  C:3184H         LINE#         303
  C:3193H         LINE#         304
  C:3198H         LINE#         306
  C:319AH         LINE#         308
  C:31ACH         LINE#         309
  C:31ACH         LINE#         310
  C:31BBH         LINE#         311
  C:31CAH         LINE#         312
  C:31D7H         LINE#         313
  C:31E2H         LINE#         314
  C:31E5H         LINE#         315
  C:31E8H         LINE#         317
  C:31E8H         LINE#         318
  C:3209H         LINE#         319
  C:3245H         LINE#         320
  C:324FH         LINE#         321
  C:3267H         LINE#         322
  C:3267H         LINE#         324
  C:3272H         LINE#         325
  C:3275H         LINE#         326
  C:3275H         LINE#         329
  C:329EH         LINE#         330
  C:329EH         LINE#         331
  C:32A4H         LINE#         332
  C:32AAH         LINE#         334
  C:32B7H         LINE#         336
  C:32CCH         LINE#         337
  C:32E1H         LINE#         339
  C:32F9H         LINE#         342
  C:32FDH         LINE#         344
  C:32FDH         LINE#         346
  C:3307H         LINE#         347
  C:3307H         LINE#         348
  C:330DH         LINE#         349
  C:3310H         LINE#         350
  C:3310H         LINE#         352
  C:3312H         LINE#         353
  -------         ENDPROC       TIMER2_INTERRUPT
  -------         PROC          SPI_INTERRUPT
  C:7C7EH         LINE#         355
  C:7C7EH         LINE#         357
  -------         ENDPROC       SPI_INTERRUPT
  -------         PROC          I2C_INTERRUPT
  C:7C7FH         LINE#         359
  C:7C7FH         LINE#         361
  -------         ENDPROC       I2C_INTERRUPT
  -------         PROC          LVD_INTERRUPT
  C:7C80H         LINE#         363
  C:7C80H         LINE#         365
  -------         ENDPROC       LVD_INTERRUPT
  -------         PROC          COMP_OUT_RE_INTERRUPT
  C:7C81H         LINE#         367
  C:7C81H         LINE#         369
  -------         ENDPROC       COMP_OUT_RE_INTERRUPT
  -------         PROC          COMP_OUT_FE_INTERRUPT
BL51 BANKED LINKER/LOCATER V6.22.2.0                                                  07/15/2022  09:34:05  PAGE 86


  C:7C82H         LINE#         371
  C:7C82H         LINE#         373
  -------         ENDPROC       COMP_OUT_FE_INTERRUPT
  -------         PROC          CRT_INTERRUPT
  C:7C83H         LINE#         381
  C:7C83H         LINE#         383
  -------         ENDPROC       CRT_INTERRUPT
  -------         PROC          EXTERNAL_INTERRUPT_2
  C:7C84H         LINE#         386
  C:7C84H         LINE#         388
  -------         ENDPROC       EXTERNAL_INTERRUPT_2
  -------         PROC          EXTERNAL_INTERRUPT_3
  C:7C85H         LINE#         390
  C:7C85H         LINE#         392
  -------         ENDPROC       EXTERNAL_INTERRUPT_3
  -------         PROC          KBI_INTERRUPT
  C:7C86H         LINE#         394
  C:7C86H         LINE#         396
  -------         ENDPROC       KBI_INTERRUPT
  -------         ENDMOD        MAIN

  -------         MODULE        RAM
  C:0000H         SYMBOL        _ICE_DUMMY_
  X:0000H         PUBLIC        carrier_time
  I:005EH         PUBLIC        pflashCode
  D:0080H         PUBLIC        P0
  D:0090H         PUBLIC        P1
  D:00A0H         PUBLIC        P2
  D:00B0H         PUBLIC        P3
  X:0002H         PUBLIC        wTimer_Max
  I:0060H         PUBLIC        First_End
  I:0063H         PUBLIC        pCodeLast
  X:0004H         PUBLIC        repeat
  X:0005H         PUBLIC        Before_CRT_State
  X:0006H         PUBLIC        IrKeyBuf
  I:0066H         PUBLIC        pTemp
  X:0007H         PUBLIC        reg_key_buf
  X:000BH         PUBLIC        key_buf_old
  X:000FH         PUBLIC        set_no
  X:0017H         PUBLIC        reload_time
  X:0018H         PUBLIC        chksum
  X:0019H         PUBLIC        RC5_Toggle
  X:001AH         PUBLIC        ir_zip
  I:0069H         PUBLIC        bidxEndWord1
  X:004DH         PUBLIC        reg_key_max
  X:004EH         PUBLIC        curr_device
  I:006CH         PUBLIC        bidxEndWord2
  X:004FH         PUBLIC        non_special_flash_start
  X:0050H         PUBLIC        ir_ok
  X:0051H         PUBLIC        power_toggle
  X:0052H         PUBLIC        Envelop_time_max
  I:006FH         PUBLIC        cpX_keymap
  X:0054H         PUBLIC        Three_low_keyoff
  X:0055H         PUBLIC        FactoryEntryCnt
  X:0056H         PUBLIC        gl_Toggle
  X:0058H         PUBLIC        backup_settingNo
  X:005AH         PUBLIC        direction_inAuto
BL51 BANKED LINKER/LOCATER V6.22.2.0                                                  07/15/2022  09:34:05  PAGE 87


  I:0072H         PUBLIC        pCodeaddr_1
  X:005BH         PUBLIC        Before_carrier
  X:005CH         PUBLIC        backup_key
  X:005DH         PUBLIC        outframeNo
  X:005EH         PUBLIC        led_force
  X:005FH         PUBLIC        RW
  X:0060H         PUBLIC        twokey_result
  I:0075H         PUBLIC        bidxRepeatWord
  X:0061H         PUBLIC        batch_mode_setting_no
  X:0063H         PUBLIC        ramFormat
  I:0078H         PUBLIC        pramCode
  X:0089H         PUBLIC        uptr_Timer
  X:008CH         PUBLIC        Envelop_create_flag
  I:007BH         PUBLIC        eeFAILAddress
  X:008DH         PUBLIC        refDev_inAuto
  X:008EH         PUBLIC        curr_source
  X:008FH         PUBLIC        continuous_reload
  X:0090H         PUBLIC        learn_type
  X:0091H         PUBLIC        keyholdcnt
  X:0092H         PUBLIC        setting_ok
  X:0093H         PUBLIC        StbNo_AutoSearch
  X:0094H         PUBLIC        ramCode
  X:009DH         PUBLIC        carrier_time_ns
  I:007DH         PUBLIC        f4_cnt
  X:009FH         PUBLIC        setting_no
  X:00A1H         PUBLIC        avShiftMode_active
  X:00A2H         PUBLIC        F4_i
  X:00A3H         PUBLIC        Envelop_counter
  X:00A5H         PUBLIC        curr_state
  X:00A6H         PUBLIC        F4_carrier
  D:00E0H         PUBLIC        ACC
  X:00A7H         PUBLIC        carrier_time_us
  X:00A9H         PUBLIC        Timer0_65ms16
  I:007EH         PUBLIC        cpX_keymap2
  X:00ABH         PUBLIC        uptr_TimerEnd
  X:00AEH         PUBLIC        ir_stream
  X:02D6H         PUBLIC        Timer0_keyin_chk
  X:02D8H         PUBLIC        refNo_inAuto
  X:02DAH         PUBLIC        t1_int
  X:02DBH         PUBLIC        ContinueDoubleKey
  D:00E8H         PUBLIC        T168CON
  I:0081H         PUBLIC        Repeat_Start
  X:02DCH         PUBLIC        before_reload_state
  X:02DDH         PUBLIC        setting_device
  X:02DEH         PUBLIC        bTestModeEnable
  X:02DFH         PUBLIC        lvi_check_key
  X:02E0H         PUBLIC        Timer0_65ms16_2
  X:02E2H         PUBLIC        crt_int_counter
  I:0084H         PUBLIC        Repeat_End
  X:02E4H         PUBLIC        keyCnt_inLow
  X:02E5H         PUBLIC        pStream
  X:02E8H         PUBLIC        backup_IrKeyBuf
  I:0087H         PUBLIC        npWaddr_1
  I:008AH         PUBLIC        pWordptr
  X:02E9H         PUBLIC        prev_direction
  D:00C0H         PUBLIC        IIC0CON
  I:008DH         PUBLIC        eeFAIL
BL51 BANKED LINKER/LOCATER V6.22.2.0                                                  07/15/2022  09:34:05  PAGE 88


  I:008EH         PUBLIC        TransferSize
  X:02EAH         PUBLIC        end1
  X:02EBH         PUBLIC        key_buf
  X:02EFH         PUBLIC        end2
  X:02F0H         PUBLIC        Envelop_counter_max
  X:02F2H         PUBLIC        Timer1_1sec08
  X:02F3H         PUBLIC        direction_G
  X:02F4H         PUBLIC        Envelop_time
  X:02F6H         PUBLIC        backup_source
  X:02F7H         PUBLIC        key_cnt
  I:0090H         PUBLIC        eeIntFlag
  X:02F8H         PUBLIC        Timer0_avShiftMode
  X:02FAH         PUBLIC        batch_mode_keybuf
  X:02FBH         PUBLIC        setting_source
  X:02FCH         PUBLIC        key_changed
  X:02FDH         PUBLIC        wTimer
  -------         ENDMOD        RAM

  -------         MODULE        ROM
  C:0000H         SYMBOL        _ICE_DUMMY_
  D:0080H         PUBLIC        P0
  D:0090H         PUBLIC        P1
  D:00A0H         PUBLIC        P2
  D:00B0H         PUBLIC        P3
  C:5FB7H         PUBLIC        FACTORY_TEST_KEY
  C:5ECDH         PUBLIC        X_MAPDUMMY
  C:5FBCH         PUBLIC        SW_VERSION
  C:5E97H         PUBLIC        X_CODECVT
  D:00E0H         PUBLIC        ACC
  C:5FA7H         PUBLIC        RC6
  C:5ECEH         PUBLIC        X_TOGGKEY
  D:00E8H         PUBLIC        T168CON
  C:5ED3H         PUBLIC        pfunc_ptr
  C:5F99H         PUBLIC        constBitMask
  C:5FA1H         PUBLIC        pbMaskIndex
  C:5ECFH         PUBLIC        X_TOGGPOS
  C:5EC9H         PUBLIC        X_DATADUMMY
  C:5F6CH         PUBLIC        pfunc_special
  D:00C0H         PUBLIC        IIC0CON
  -------         ENDMOD        ROM

  -------         MODULE        SPECIAL
  C:0000H         SYMBOL        _ICE_DUMMY_
  C:7C77H         PUBLIC        func_SPECIAL_FE
  D:0080H         PUBLIC        P0
  D:0090H         PUBLIC        P1
  D:00A0H         PUBLIC        P2
  D:00B0H         PUBLIC        P3
  C:71E9H         PUBLIC        function_special_Ext_call
  D:00E0H         PUBLIC        ACC
  D:00E8H         PUBLIC        T168CON
  D:00C0H         PUBLIC        IIC0CON
  C:212EH         PUBLIC        func_SPECIAL_F0
  C:7C71H         PUBLIC        func_SPECIAL_E2
  C:7C44H         PUBLIC        func_SPECIAL_F1
  C:7C62H         PUBLIC        func_SPECIAL_E3
  C:56E1H         PUBLIC        func_SPECIAL_F2
BL51 BANKED LINKER/LOCATER V6.22.2.0                                                  07/15/2022  09:34:05  PAGE 89


  C:7C65H         PUBLIC        func_SPECIAL_E4
  C:7C47H         PUBLIC        func_SPECIAL_F3
  C:3CB3H         PUBLIC        func_SPECIAL_E5
  C:4E8EH         PUBLIC        func_SPECIAL_F4
  C:7C74H         PUBLIC        func_SPECIAL_E6
  C:331DH         PUBLIC        func_SPECIAL_F5
  C:7C4AH         PUBLIC        func_SPECIAL_F6
  C:7C68H         PUBLIC        func_SPECIAL_E8
  C:7C4DH         PUBLIC        func_SPECIAL_F7
  C:7C6BH         PUBLIC        func_SPECIAL_E9
  C:7C50H         PUBLIC        func_SPECIAL_F8
  C:7C53H         PUBLIC        func_SPECIAL_F9
  C:7C6EH         PUBLIC        func_SPECIAL_EA
  C:7C56H         PUBLIC        func_SPECIAL_FA
  C:7C59H         PUBLIC        func_SPECIAL_FB
  C:7C5CH         PUBLIC        func_SPECIAL_FC
  C:7C5FH         PUBLIC        func_SPECIAL_FD
  -------         PROC          FUNC_SPECIAL_F0
  -------         DO            
  D:0030H         SYMBOL        i
  D:0032H         SYMBOL        j
  D:0034H         SYMBOL        ulTemp
  D:0038H         SYMBOL        uWord12
  -------         ENDDO         
  C:212EH         LINE#         23
  C:212EH         LINE#         24
  C:212EH         LINE#         29
  C:2135H         LINE#         30
  C:213FH         LINE#         32
  C:2156H         LINE#         33
  C:216BH         LINE#         35
  C:2189H         LINE#         36
  C:2191H         LINE#         38
  C:219CH         LINE#         39
  C:219CH         LINE#         40
  C:21B1H         LINE#         42
  C:21C7H         LINE#         43
  C:21C7H         LINE#         44
  C:21D1H         LINE#         45
  C:21D1H         LINE#         46
  C:21E0H         LINE#         47
  C:21E2H         LINE#         49
  C:21E2H         LINE#         50
  C:21F7H         LINE#         51
  C:21F7H         LINE#         53
  C:2215H         LINE#         54
  C:221DH         LINE#         55
  C:2232H         LINE#         56
  C:223DH         LINE#         58
  C:2252H         LINE#         60
  C:226BH         LINE#         61
  C:226BH         LINE#         62
  C:2275H         LINE#         63
  C:2275H         LINE#         64
  C:2284H         LINE#         65
  C:2286H         LINE#         67
  C:2286H         LINE#         68
BL51 BANKED LINKER/LOCATER V6.22.2.0                                                  07/15/2022  09:34:05  PAGE 90


  C:229BH         LINE#         69
  C:229BH         LINE#         71
  C:22B9H         LINE#         72
  C:22C1H         LINE#         73
  C:22D6H         LINE#         74
  C:22E1H         LINE#         75
  C:22E1H         LINE#         76
  C:22ECH         LINE#         77
  C:22ECH         LINE#         78
  C:2301H         LINE#         79
  C:231FH         LINE#         80
  C:2327H         LINE#         82
  C:233CH         LINE#         84
  C:2352H         LINE#         85
  C:2352H         LINE#         86
  C:235CH         LINE#         87
  C:235CH         LINE#         88
  C:236BH         LINE#         89
  C:236DH         LINE#         91
  C:236DH         LINE#         92
  C:2382H         LINE#         93
  C:2382H         LINE#         95
  C:23A0H         LINE#         96
  C:23A8H         LINE#         97
  C:23BDH         LINE#         98
  C:23C8H         LINE#         100
  C:23DDH         LINE#         101
  C:23F3H         LINE#         102
  C:23F3H         LINE#         103
  C:23FDH         LINE#         104
  C:23FDH         LINE#         105
  C:240CH         LINE#         106
  C:240EH         LINE#         108
  C:240EH         LINE#         109
  C:2423H         LINE#         110
  C:2423H         LINE#         112
  C:2441H         LINE#         113
  C:2449H         LINE#         114
  C:245EH         LINE#         115
  C:2469H         LINE#         117
  C:247EH         LINE#         118
  C:249CH         LINE#         119
  C:24A4H         LINE#         121
  C:24B5H         LINE#         124
  C:24D5H         LINE#         126
  C:24DBH         LINE#         128
  C:24E5H         LINE#         129
  C:24F9H         LINE#         130
  C:2519H         LINE#         132
  C:2537H         LINE#         133
  C:253FH         LINE#         135
  C:2553H         LINE#         137
  C:2571H         LINE#         138
  C:2579H         LINE#         140
  C:258EH         LINE#         142
  C:25A4H         LINE#         143
  C:25A4H         LINE#         144
BL51 BANKED LINKER/LOCATER V6.22.2.0                                                  07/15/2022  09:34:05  PAGE 91


  C:25AEH         LINE#         145
  C:25AEH         LINE#         146
  C:25BDH         LINE#         147
  C:25BFH         LINE#         149
  C:25BFH         LINE#         150
  C:25D4H         LINE#         151
  C:25D4H         LINE#         153
  C:25F2H         LINE#         154
  C:25FAH         LINE#         155
  C:260FH         LINE#         156
  C:261AH         LINE#         158
  C:262FH         LINE#         160
  C:2645H         LINE#         161
  C:2645H         LINE#         162
  C:264FH         LINE#         163
  C:264FH         LINE#         164
  C:265EH         LINE#         165
  C:2660H         LINE#         167
  C:2660H         LINE#         168
  C:2675H         LINE#         169
  C:2675H         LINE#         171
  C:2693H         LINE#         172
  C:269BH         LINE#         173
  C:26B0H         LINE#         174
  C:26BBH         LINE#         176
  C:26D0H         LINE#         177
  C:26EEH         LINE#         178
  C:26F6H         LINE#         180
  C:2707H         LINE#         183
  C:2727H         LINE#         185
  C:2728H         LINE#         187
  C:272BH         LINE#         189
  C:272BH         LINE#         190
  C:2736H         LINE#         191
  C:2736H         LINE#         192
  C:274BH         LINE#         194
  C:2769H         LINE#         195
  C:2771H         LINE#         197
  C:2786H         LINE#         198
  C:279CH         LINE#         199
  C:279CH         LINE#         200
  C:27A6H         LINE#         201
  C:27A6H         LINE#         202
  C:27B5H         LINE#         203
  C:27B7H         LINE#         205
  C:27B7H         LINE#         206
  C:27CCH         LINE#         207
  C:27CCH         LINE#         209
  C:27EAH         LINE#         210
  C:27F2H         LINE#         211
  C:2807H         LINE#         212
  C:2812H         LINE#         214
  C:2827H         LINE#         215
  C:283DH         LINE#         216
  C:283DH         LINE#         217
  C:2847H         LINE#         218
  C:2847H         LINE#         219
BL51 BANKED LINKER/LOCATER V6.22.2.0                                                  07/15/2022  09:34:05  PAGE 92


  C:2856H         LINE#         220
  C:2858H         LINE#         222
  C:2858H         LINE#         223
  C:286DH         LINE#         224
  C:286DH         LINE#         226
  C:288BH         LINE#         227
  C:2893H         LINE#         228
  C:28A8H         LINE#         229
  C:28B3H         LINE#         231
  C:28C8H         LINE#         233
  C:28E6H         LINE#         234
  C:28EEH         LINE#         236
  C:2902H         LINE#         238
  C:2920H         LINE#         239
  C:2928H         LINE#         241
  C:2939H         LINE#         245
  C:2959H         LINE#         248
  C:295FH         LINE#         250
  C:2969H         LINE#         252
  C:297DH         LINE#         255
  C:299BH         LINE#         256
  C:29A3H         LINE#         258
  C:29B7H         LINE#         260
  C:29D5H         LINE#         261
  C:29DDH         LINE#         263
  C:29F2H         LINE#         265
  C:2A08H         LINE#         266
  C:2A08H         LINE#         267
  C:2A12H         LINE#         268
  C:2A12H         LINE#         269
  C:2A21H         LINE#         270
  C:2A23H         LINE#         272
  C:2A23H         LINE#         273
  C:2A38H         LINE#         274
  C:2A38H         LINE#         276
  C:2A56H         LINE#         277
  C:2A5EH         LINE#         278
  C:2A73H         LINE#         279
  C:2A7EH         LINE#         281
  C:2A93H         LINE#         282
  C:2AA9H         LINE#         283
  C:2AA9H         LINE#         284
  C:2AB3H         LINE#         285
  C:2AB3H         LINE#         286
  C:2AC2H         LINE#         287
  C:2AC4H         LINE#         289
  C:2AC4H         LINE#         290
  C:2AD9H         LINE#         291
  C:2AD9H         LINE#         293
  C:2AF7H         LINE#         294
  C:2AFFH         LINE#         295
  C:2B14H         LINE#         296
  C:2B1FH         LINE#         298
  C:2B34H         LINE#         300
  C:2B52H         LINE#         301
  C:2B5AH         LINE#         303
  C:2B6EH         LINE#         305
BL51 BANKED LINKER/LOCATER V6.22.2.0                                                  07/15/2022  09:34:05  PAGE 93


  C:2B8CH         LINE#         306
  C:2B94H         LINE#         308
  C:2BA5H         LINE#         316
  C:2BC1H         LINE#         318
  C:2BC4H         LINE#         319
  C:2BC4H         LINE#         321
  C:2BC4H         LINE#         322
  C:2BC9H         LINE#         323
  C:2BDEH         LINE#         324
  C:2BF7H         LINE#         325
  C:2BF7H         LINE#         326
  C:2C01H         LINE#         327
  C:2C01H         LINE#         328
  C:2C06H         LINE#         329
  C:2C06H         LINE#         330
  C:2C15H         LINE#         331
  C:2C17H         LINE#         333
  C:2C17H         LINE#         334
  C:2C27H         LINE#         335
  C:2C27H         LINE#         336
  C:2C29H         LINE#         338
  C:2C29H         LINE#         339
  C:2C3EH         LINE#         340
  C:2C3EH         LINE#         342
  C:2C5CH         LINE#         343
  C:2C64H         LINE#         344
  C:2C79H         LINE#         345
  C:2C81H         LINE#         346
  C:2C8CH         LINE#         347
  C:2CA1H         LINE#         348
  C:2CBAH         LINE#         349
  C:2CBAH         LINE#         350
  C:2CC4H         LINE#         351
  C:2CC4H         LINE#         352
  C:2CC9H         LINE#         353
  C:2CC9H         LINE#         354
  C:2CD8H         LINE#         355
  C:2CDAH         LINE#         357
  C:2CDAH         LINE#         358
  C:2CEAH         LINE#         359
  C:2CEAH         LINE#         360
  C:2CECH         LINE#         362
  C:2CECH         LINE#         363
  C:2D01H         LINE#         364
  C:2D01H         LINE#         366
  C:2D1FH         LINE#         367
  C:2D27H         LINE#         368
  C:2D3CH         LINE#         369
  C:2D44H         LINE#         370
  C:2D4FH         LINE#         371
  C:2D4FH         LINE#         373
  C:2D64H         LINE#         374
  C:2D82H         LINE#         375
  C:2D8AH         LINE#         377
  C:2D9BH         LINE#         381
  C:2DBBH         LINE#         382
  C:2DC2H         LINE#         384
BL51 BANKED LINKER/LOCATER V6.22.2.0                                                  07/15/2022  09:34:05  PAGE 94


  C:2DCFH         LINE#         386
  C:2DD1H         LINE#         387
  -------         ENDPROC       FUNC_SPECIAL_F0
  -------         PROC          FUNC_SPECIAL_F1
  C:7C44H         LINE#         447
  C:7C44H         LINE#         448
  C:7C44H         LINE#         449
  C:7C46H         LINE#         450
  -------         ENDPROC       FUNC_SPECIAL_F1
  -------         PROC          FUNC_SPECIAL_F2
  -------         DO            
  D:0030H         SYMBOL        i
  D:0032H         SYMBOL        j
  D:0034H         SYMBOL        uWord12
  D:0036H         SYMBOL        ulTemp
  -------         ENDDO         
  C:56E1H         LINE#         455
  C:56E1H         LINE#         456
  C:56E1H         LINE#         461
  C:56EBH         LINE#         464
  C:571AH         LINE#         466
  C:572FH         LINE#         468
  C:5744H         LINE#         469
  C:574AH         LINE#         471
  C:575AH         LINE#         472
  C:575AH         LINE#         473
  C:5771H         LINE#         474
  C:57A0H         LINE#         475
  C:57B5H         LINE#         476
  C:57BFH         LINE#         477
  C:57D1H         LINE#         478
  C:57D1H         LINE#         479
  C:57F5H         LINE#         480
  C:5805H         LINE#         481
  C:5805H         LINE#         483
  C:5817H         LINE#         485
  C:5837H         LINE#         486
  C:583EH         LINE#         487
  C:584BH         LINE#         489
  C:584DH         LINE#         490
  -------         ENDPROC       FUNC_SPECIAL_F2
  -------         PROC          FUNC_SPECIAL_F3
  C:7C47H         LINE#         553
  C:7C47H         LINE#         554
  C:7C47H         LINE#         555
  C:7C49H         LINE#         556
  -------         ENDPROC       FUNC_SPECIAL_F3
  -------         PROC          FUNC_SPECIAL_F4
  -------         DO            
  D:0030H         SYMBOL        i
  D:0032H         SYMBOL        uWord12
  D:0034H         SYMBOL        ulTemp
  D:0038H         SYMBOL        ulTempPrv
  D:003CH         SYMBOL        bBit1
  D:003DH         SYMBOL        bBit0
  D:003EH         SYMBOL        idxCarrier
  D:0040H         SYMBOL        first
BL51 BANKED LINKER/LOCATER V6.22.2.0                                                  07/15/2022  09:34:05  PAGE 95


  D:0042H         SYMBOL        bBit1Carrier
  D:0043H         SYMBOL        bBit0Carrier
  D:0044H         SYMBOL        iCntBit0
  -------         ENDDO         
  C:4E8EH         LINE#         561
  C:4E8EH         LINE#         562
  C:4E8EH         LINE#         568
  C:4E93H         LINE#         570
  C:4E97H         LINE#         572
  C:4E9AH         LINE#         573
  C:4E9DH         LINE#         575
  C:4EA5H         LINE#         577
  C:4EAFH         LINE#         579
  C:4EB8H         LINE#         580
  C:4EC8H         LINE#         581
  C:4ECEH         LINE#         582
  C:4EDDH         LINE#         584
  C:4EE6H         LINE#         585
  C:4EF6H         LINE#         586
  C:4EFCH         LINE#         587
  C:4F0BH         LINE#         589
  C:4F15H         LINE#         591
  C:4F2AH         LINE#         592
  C:4F35H         LINE#         594
  C:4F4EH         LINE#         595
  C:4F5CH         LINE#         597
  C:4F74H         LINE#         599
  C:4F7EH         LINE#         600
  C:4F82H         LINE#         601
  C:4F82H         LINE#         602
  C:4F99H         LINE#         603
  C:4F99H         LINE#         604
  C:4FA7H         LINE#         605
  C:4FA7H         LINE#         606
  C:4FC5H         LINE#         607
  C:4FCDH         LINE#         608
  C:4FCDH         LINE#         609
  C:4FDFH         LINE#         610
  C:4FE4H         LINE#         611
  C:4FE6H         LINE#         613
  C:4FE6H         LINE#         614
  C:4FF4H         LINE#         615
  C:4FF4H         LINE#         616
  C:5012H         LINE#         617
  C:501AH         LINE#         618
  C:501AH         LINE#         619
  C:501AH         LINE#         621
  C:5041H         LINE#         622
  C:504EH         LINE#         623
  C:504EH         LINE#         624
  C:505AH         LINE#         626
  C:5076H         LINE#         627
  C:5078H         LINE#         629
  C:5078H         LINE#         630
  C:5084H         LINE#         632
  C:50A0H         LINE#         633
  C:50ABH         LINE#         634
BL51 BANKED LINKER/LOCATER V6.22.2.0                                                  07/15/2022  09:34:05  PAGE 96


  C:50ABH         LINE#         635
  C:50B8H         LINE#         637
  C:50CDH         LINE#         638
  C:50DEH         LINE#         639
  C:50FCH         LINE#         641
  C:5111H         LINE#         642
  C:511CH         LINE#         643
  C:5128H         LINE#         645
  C:5132H         LINE#         646
  C:5159H         LINE#         647
  C:5173H         LINE#         648
  C:5185H         LINE#         650
  C:51A5H         LINE#         651
  C:51ACH         LINE#         652
  C:51B9H         LINE#         655
  C:51BBH         LINE#         656
  -------         ENDPROC       FUNC_SPECIAL_F4
  -------         PROC          FUNC_SPECIAL_F5
  -------         DO            
  D:0030H         SYMBOL        uWord12
  D:0032H         SYMBOL        cust
  D:0036H         SYMBOL        data1
  D:003AH         SYMBOL        NormalTransport
  -------         ENDDO         
  C:331DH         LINE#         666
  C:331DH         LINE#         667
  C:331DH         LINE#         674
  C:3335H         LINE#         676
  C:3348H         LINE#         677
  C:335DH         LINE#         679
  C:3367H         LINE#         680
  C:3367H         LINE#         681
  C:336AH         LINE#         682
  C:336EH         LINE#         683
  C:3372H         LINE#         684
  C:3376H         LINE#         686
  C:3380H         LINE#         688
  C:338DH         LINE#         689
  C:339AH         LINE#         691
  C:33A2H         LINE#         692
  C:33A2H         LINE#         693
  C:33A4H         LINE#         694
  C:33AEH         LINE#         695
  C:33AEH         LINE#         696
  C:33B1H         LINE#         697
  C:33B5H         LINE#         698
  C:33B9H         LINE#         700
  C:33C3H         LINE#         702
  C:33D2H         LINE#         703
  C:33DFH         LINE#         705
  C:33E8H         LINE#         706
  C:33F1H         LINE#         708
  C:33F1H         LINE#         710
  C:3414H         LINE#         711
  C:341CH         LINE#         712
  C:341CH         LINE#         713
  C:3440H         LINE#         714
BL51 BANKED LINKER/LOCATER V6.22.2.0                                                  07/15/2022  09:34:05  PAGE 97


  C:3450H         LINE#         715
  C:3450H         LINE#         717
  C:3462H         LINE#         720
  C:346BH         LINE#         721
  C:346BH         LINE#         724
  C:3475H         LINE#         725
  C:3486H         LINE#         727
  C:3490H         LINE#         728
  C:349AH         LINE#         729
  C:349AH         LINE#         730
  C:34ADH         LINE#         731
  C:34B7H         LINE#         732
  C:34B9H         LINE#         733
  C:34C3H         LINE#         734
  C:34C3H         LINE#         735
  C:34D6H         LINE#         736
  C:34E9H         LINE#         737
  C:34E9H         LINE#         738
  C:34FCH         LINE#         739
  C:350EH         LINE#         740
  C:3531H         LINE#         741
  C:3539H         LINE#         742
  C:3539H         LINE#         743
  C:355DH         LINE#         744
  C:356DH         LINE#         745
  C:356DH         LINE#         747
  C:356DH         LINE#         749
  C:356DH         LINE#         750
  C:356DH         LINE#         751
  C:356DH         LINE#         753
  C:3570H         LINE#         755
  C:3578H         LINE#         756
  C:3578H         LINE#         758
  C:3578H         LINE#         759
  C:3578H         LINE#         760
  C:3578H         LINE#         761
  C:357BH         LINE#         763
  C:3586H         LINE#         764
  C:3586H         LINE#         765
  C:3596H         LINE#         766
  C:359EH         LINE#         768
  C:35A8H         LINE#         770
  C:35B2H         LINE#         771
  C:35B2H         LINE#         772
  C:35C5H         LINE#         773
  C:35CFH         LINE#         774
  C:35D1H         LINE#         775
  C:35DBH         LINE#         776
  C:35DBH         LINE#         777
  C:35EEH         LINE#         778
  C:3601H         LINE#         779
  C:3601H         LINE#         780
  C:3614H         LINE#         781
  C:3626H         LINE#         782
  C:3649H         LINE#         783
  C:3651H         LINE#         784
  C:3651H         LINE#         785
BL51 BANKED LINKER/LOCATER V6.22.2.0                                                  07/15/2022  09:34:05  PAGE 98


  C:3675H         LINE#         786
  C:3685H         LINE#         787
  C:3685H         LINE#         789
  C:3697H         LINE#         791
  C:369EH         LINE#         792
  C:369EH         LINE#         793
  C:369EH         LINE#         795
  C:36A1H         LINE#         797
  C:36ACH         LINE#         798
  C:36ACH         LINE#         799
  C:36CCH         LINE#         803
  C:36D6H         LINE#         804
  C:36E7H         LINE#         806
  C:36F1H         LINE#         807
  C:36FBH         LINE#         808
  C:36FBH         LINE#         809
  C:370EH         LINE#         810
  C:3718H         LINE#         811
  C:371AH         LINE#         812
  C:3724H         LINE#         813
  C:3724H         LINE#         814
  C:3737H         LINE#         815
  C:374AH         LINE#         816
  C:374AH         LINE#         817
  C:375DH         LINE#         818
  C:376FH         LINE#         819
  C:3792H         LINE#         820
  C:379AH         LINE#         821
  C:379AH         LINE#         822
  C:37BEH         LINE#         823
  C:37CEH         LINE#         824
  C:37CEH         LINE#         826
  C:37E0H         LINE#         828
  C:3800H         LINE#         829
  C:3808H         LINE#         830
  C:3808H         LINE#         832
  C:3816H         LINE#         833
  C:3824H         LINE#         834
  C:382AH         LINE#         836
  C:382CH         LINE#         837
  -------         ENDPROC       FUNC_SPECIAL_F5
  -------         PROC          FUNC_SPECIAL_F6
  C:7C4AH         LINE#         865
  C:7C4AH         LINE#         866
  C:7C4AH         LINE#         867
  C:7C4CH         LINE#         868
  -------         ENDPROC       FUNC_SPECIAL_F6
  -------         PROC          FUNC_SPECIAL_F7
  C:7C4DH         LINE#         943
  C:7C4DH         LINE#         944
  C:7C4DH         LINE#         945
  C:7C4FH         LINE#         946
  -------         ENDPROC       FUNC_SPECIAL_F7
  -------         PROC          FUNC_SPECIAL_F8
  C:7C50H         LINE#         985
  C:7C50H         LINE#         986
  C:7C50H         LINE#         987
BL51 BANKED LINKER/LOCATER V6.22.2.0                                                  07/15/2022  09:34:05  PAGE 99


  C:7C52H         LINE#         988
  -------         ENDPROC       FUNC_SPECIAL_F8
  -------         PROC          FUNC_SPECIAL_F9
  C:7C53H         LINE#         1050
  C:7C53H         LINE#         1051
  C:7C53H         LINE#         1052
  C:7C55H         LINE#         1053
  -------         ENDPROC       FUNC_SPECIAL_F9
  -------         PROC          FUNC_SPECIAL_FA
  C:7C56H         LINE#         1114
  C:7C56H         LINE#         1115
  C:7C56H         LINE#         1116
  C:7C58H         LINE#         1117
  -------         ENDPROC       FUNC_SPECIAL_FA
  -------         PROC          FUNC_SPECIAL_FB
  C:7C59H         LINE#         1178
  C:7C59H         LINE#         1179
  C:7C59H         LINE#         1180
  C:7C5BH         LINE#         1181
  -------         ENDPROC       FUNC_SPECIAL_FB
  -------         PROC          FUNC_SPECIAL_FC
  C:7C5CH         LINE#         1241
  C:7C5CH         LINE#         1242
  C:7C5CH         LINE#         1243
  C:7C5EH         LINE#         1244
  -------         ENDPROC       FUNC_SPECIAL_FC
  -------         PROC          FUNC_SPECIAL_FD
  C:7C5FH         LINE#         1306
  C:7C5FH         LINE#         1307
  C:7C5FH         LINE#         1308
  C:7C61H         LINE#         1309
  -------         ENDPROC       FUNC_SPECIAL_FD
  -------         PROC          FUNC_SPECIAL_E3
  C:7C62H         LINE#         1485
  C:7C62H         LINE#         1486
  C:7C62H         LINE#         1487
  C:7C64H         LINE#         1488
  -------         ENDPROC       FUNC_SPECIAL_E3
  -------         PROC          FUNC_SPECIAL_E4
  C:7C65H         LINE#         1637
  C:7C65H         LINE#         1638
  C:7C65H         LINE#         1639
  C:7C67H         LINE#         1640
  -------         ENDPROC       FUNC_SPECIAL_E4
  -------         PROC          FUNC_SPECIAL_E5
  -------         DO            
  D:0030H         SYMBOL        i
  D:0032H         SYMBOL        ulTemp
  D:0036H         SYMBOL        uWord12
  -------         ENDDO         
  C:3CB3H         LINE#         1646
  C:3CB3H         LINE#         1647
  C:3CB3H         LINE#         1652
  C:3CB8H         LINE#         1655
  C:3CC2H         LINE#         1657
  C:3CDCH         LINE#         1658
  C:3CFAH         LINE#         1659
BL51 BANKED LINKER/LOCATER V6.22.2.0                                                  07/15/2022  09:34:05  PAGE 100


  C:3D02H         LINE#         1661
  C:3D16H         LINE#         1662
  C:3D34H         LINE#         1663
  C:3D3CH         LINE#         1673
  C:3D51H         LINE#         1674
  C:3D6AH         LINE#         1675
  C:3D6AH         LINE#         1676
  C:3D84H         LINE#         1677
  C:3DA2H         LINE#         1678
  C:3DAAH         LINE#         1683
  C:3DD2H         LINE#         1684
  C:3DD2H         LINE#         1685
  C:3DD2H         LINE#         1686
  C:3DD5H         LINE#         1687
  C:3DD7H         LINE#         1688
  C:3DD7H         LINE#         1689
  C:3DDAH         LINE#         1690
  C:3DDCH         LINE#         1691
  C:3DDCH         LINE#         1692
  C:3DDFH         LINE#         1693
  C:3DE1H         LINE#         1694
  C:3DE1H         LINE#         1695
  C:3DF6H         LINE#         1696
  C:3DF6H         LINE#         1697
  C:3DF6H         LINE#         1700
  C:3E14H         LINE#         1701
  C:3E1CH         LINE#         1702
  C:3E31H         LINE#         1703
  C:3E3FH         LINE#         1756
  C:3E54H         LINE#         1758
  C:3E65H         LINE#         1759
  C:3E65H         LINE#         1760
  C:3E65H         LINE#         1761
  C:3E6BH         LINE#         1762
  C:3E6BH         LINE#         1763
  C:3E87H         LINE#         1764
  C:3E87H         LINE#         1765
  C:3E87H         LINE#         1766
  C:3E87H         LINE#         1767
  C:3E89H         LINE#         1768
  C:3E89H         LINE#         1769
  C:3E89H         LINE#         1770
  C:3E8BH         LINE#         1771
  C:3E8BH         LINE#         1773
  C:3E8BH         LINE#         1775
  C:3E91H         LINE#         1776
  C:3E94H         LINE#         1777
  C:3E94H         LINE#         1778
  C:3EA5H         LINE#         1779
  C:3EA5H         LINE#         1780
  C:3EC1H         LINE#         1781
  C:3EC1H         LINE#         1782
  C:3EC1H         LINE#         1783
  C:3EC1H         LINE#         1784
  C:3EC3H         LINE#         1785
  C:3EC3H         LINE#         1786
  C:3EC7H         LINE#         1787
BL51 BANKED LINKER/LOCATER V6.22.2.0                                                  07/15/2022  09:34:05  PAGE 101


  C:3EC9H         LINE#         1788
  C:3EC9H         LINE#         1789
  C:3EC9H         LINE#         1790
  C:3EC9H         LINE#         1791
  C:3EC9H         LINE#         1792
  C:3EDBH         LINE#         1793
  C:3EF6H         LINE#         1794
  C:3EF6H         LINE#         1795
  C:3EF6H         LINE#         1796
  C:3EF6H         LINE#         1797
  C:3EF6H         LINE#         1798
  C:3EFAH         LINE#         1799
  C:3EFCH         LINE#         1800
  C:3EFCH         LINE#         1801
  C:3F00H         LINE#         1802
  C:3F02H         LINE#         1803
  C:3F02H         LINE#         1804
  C:3F14H         LINE#         1805
  C:3F14H         LINE#         1806
  C:3F14H         LINE#         1807
  C:3F14H         LINE#         1808
  C:3F14H         LINE#         1809
  C:3F14H         LINE#         1810
  C:3F14H         LINE#         1814
  C:3F2DH         LINE#         1815
  C:3F2DH         LINE#         1816
  C:3F47H         LINE#         1817
  C:3F65H         LINE#         1818
  C:3F6DH         LINE#         1823
  C:3F95H         LINE#         1824
  C:3F95H         LINE#         1825
  C:3F95H         LINE#         1826
  C:3F98H         LINE#         1827
  C:3F9AH         LINE#         1828
  C:3F9AH         LINE#         1829
  C:3F9DH         LINE#         1830
  C:3F9FH         LINE#         1831
  C:3F9FH         LINE#         1832
  C:3FA2H         LINE#         1833
  C:3FA4H         LINE#         1834
  C:3FA4H         LINE#         1835
  C:3FB9H         LINE#         1836
  C:3FB9H         LINE#         1837
  C:3FB9H         LINE#         1840
  C:3FD7H         LINE#         1841
  C:3FDFH         LINE#         1842
  C:3FF4H         LINE#         1843
  C:4002H         LINE#         1845
  C:401CH         LINE#         1846
  C:403AH         LINE#         1847
  C:4042H         LINE#         1849
  C:4053H         LINE#         1851
  C:4073H         LINE#         1852
  C:407AH         LINE#         1853
  C:4087H         LINE#         1855
  C:4089H         LINE#         1856
  -------         ENDPROC       FUNC_SPECIAL_E5
BL51 BANKED LINKER/LOCATER V6.22.2.0                                                  07/15/2022  09:34:05  PAGE 102


  -------         PROC          FUNC_SPECIAL_E8
  C:7C68H         LINE#         2162
  C:7C68H         LINE#         2163
  C:7C68H         LINE#         2164
  C:7C6AH         LINE#         2165
  -------         ENDPROC       FUNC_SPECIAL_E8
  -------         PROC          FUNC_SPECIAL_E9
  C:7C6BH         LINE#         2226
  C:7C6BH         LINE#         2227
  C:7C6BH         LINE#         2228
  C:7C6DH         LINE#         2229
  -------         ENDPROC       FUNC_SPECIAL_E9
  -------         PROC          FUNC_SPECIAL_EA
  C:7C6EH         LINE#         2322
  C:7C6EH         LINE#         2323
  C:7C6EH         LINE#         2324
  C:7C70H         LINE#         2325
  -------         ENDPROC       FUNC_SPECIAL_EA
  -------         PROC          FUNC_SPECIAL_E2
  C:7C71H         LINE#         2335
  C:7C71H         LINE#         2336
  C:7C71H         LINE#         2337
  C:7C73H         LINE#         2338
  -------         ENDPROC       FUNC_SPECIAL_E2
  -------         PROC          FUNC_SPECIAL_E6
  C:7C74H         LINE#         2348
  C:7C74H         LINE#         2349
  C:7C74H         LINE#         2350
  C:7C76H         LINE#         2351
  -------         ENDPROC       FUNC_SPECIAL_E6
  -------         PROC          FUNCTION_SPECIAL_EXT_CALL
  -------         DO            
  D:0007H         SYMBOL        rtn
  -------         ENDDO         
  C:71E9H         LINE#         2354
  C:71E9H         LINE#         2355
  C:71E9H         LINE#         2356
  C:71EBH         LINE#         2358
  C:7221H         LINE#         2359
  C:7221H         LINE#         2360
  C:7221H         LINE#         2361
  C:7224H         LINE#         2362
  C:7224H         LINE#         2364
  C:7224H         LINE#         2365
  C:7227H         LINE#         2366
  C:7227H         LINE#         2368
  C:7227H         LINE#         2369
  C:722AH         LINE#         2370
  C:722AH         LINE#         2372
  C:722AH         LINE#         2373
  C:722DH         LINE#         2374
  C:722DH         LINE#         2376
  C:722DH         LINE#         2377
  C:7230H         LINE#         2378
  C:7230H         LINE#         2380
  C:7230H         LINE#         2381
  C:7233H         LINE#         2382
BL51 BANKED LINKER/LOCATER V6.22.2.0                                                  07/15/2022  09:34:05  PAGE 103


  C:7233H         LINE#         2384
  C:7233H         LINE#         2385
  C:7236H         LINE#         2386
  C:7236H         LINE#         2388
  C:7236H         LINE#         2389
  C:7239H         LINE#         2390
  C:7239H         LINE#         2392
  C:7239H         LINE#         2393
  C:723BH         LINE#         2394
  C:723BH         LINE#         2395
  C:723BH         LINE#         2397
  C:723BH         LINE#         2398
  -------         ENDPROC       FUNCTION_SPECIAL_EXT_CALL
  -------         PROC          FUNC_SPECIAL_FE
  C:7C77H         LINE#         2400
  C:7C77H         LINE#         2401
  C:7C77H         LINE#         2402
  -------         ENDPROC       FUNC_SPECIAL_FE
  -------         ENDMOD        SPECIAL

  -------         MODULE        SYSCLK
  C:0000H         SYMBOL        _ICE_DUMMY_
  D:0080H         PUBLIC        P0
  D:0090H         PUBLIC        P1
  D:00A0H         PUBLIC        P2
  D:00B0H         PUBLIC        P3
  B:00A8H.7       PUBLIC        EA
  D:0095H         PUBLIC        WPKEY
  D:0091H         PUBLIC        MCKDIV
  D:00E0H         PUBLIC        ACC
  D:0091H         PUBLIC        MCKSET
  D:00E8H         PUBLIC        T168CON
  D:00ECH         PUBLIC        P0MDL
  C:7542H         PUBLIC        _clk_div
  C:723CH         PUBLIC        clk_sel
  D:00C0H         PUBLIC        IIC0CON
  -------         PROC          CLK_SEL
  B:0020H.0       SYMBOL        b_clksel
  -------         DO            
  B:0020H.1       SYMBOL        bx
  D:0021H         SYMBOL        read
  -------         ENDDO         
  C:723CH         LINE#         38
  C:723CH         LINE#         39
  C:723CH         LINE#         42
  C:723FH         LINE#         44
  C:7242H         LINE#         45
  C:7242H         LINE#         46
  C:7245H         LINE#         48
  C:7248H         LINE#         49
  C:724BH         LINE#         50
  C:7251H         LINE#         51
  C:7254H         LINE#         54
  C:7257H         LINE#         55
  C:725EH         LINE#         58
  C:7261H         LINE#         59
  C:7261H         LINE#         60
BL51 BANKED LINKER/LOCATER V6.22.2.0                                                  07/15/2022  09:34:05  PAGE 104


  C:7261H         LINE#         61
  C:7263H         LINE#         63
  C:7263H         LINE#         65
  C:7266H         LINE#         66
  C:726CH         LINE#         67
  C:726FH         LINE#         70
  C:7272H         LINE#         71
  C:7275H         LINE#         74
  C:7275H         LINE#         75
  C:7275H         LINE#         76
  C:727BH         LINE#         77
  C:727BH         LINE#         78
  C:727BH         LINE#         81
  C:727EH         LINE#         82
  C:7281H         LINE#         83
  C:7284H         LINE#         84
  C:7287H         LINE#         85
  C:728AH         LINE#         86
  C:728AH         LINE#         88
  C:728EH         LINE#         89
  -------         ENDPROC       CLK_SEL
  -------         PROC          _CLK_DIV
  D:0007H         SYMBOL        div_n
  -------         DO            
  D:0006H         SYMBOL        read
  B:0020H.0       SYMBOL        bx
  -------         ENDDO         
  C:7542H         LINE#         96
  C:7542H         LINE#         97
  C:7542H         LINE#         100
  C:7544H         LINE#         101
  C:7547H         LINE#         103
  C:7556H         LINE#         104
  C:7556H         LINE#         106
  C:7556H         LINE#         107
  C:7556H         LINE#         108
  C:7558H         LINE#         109
  C:7558H         LINE#         110
  C:755BH         LINE#         111
  C:755DH         LINE#         112
  C:755DH         LINE#         113
  C:7560H         LINE#         114
  C:7562H         LINE#         115
  C:7562H         LINE#         116
  C:7565H         LINE#         117
  C:7567H         LINE#         118
  C:7567H         LINE#         119
  C:7569H         LINE#         120
  C:7569H         LINE#         121
  C:7569H         LINE#         122
  C:756FH         LINE#         123
  C:7572H         LINE#         124
  C:7574H         LINE#         125
  C:7575H         LINE#         126
  C:7576H         LINE#         127
  C:757AH         LINE#         128
  -------         ENDPROC       _CLK_DIV
BL51 BANKED LINKER/LOCATER V6.22.2.0                                                  07/15/2022  09:34:05  PAGE 105


  -------         ENDMOD        SYSCLK

  -------         MODULE        DATA
  C:00A6H         SEGMENT       CODE_SEG
  C:00B6H         PUBLIC        X_DEVICE
  C:00A6H         PUBLIC        X_FORMAT
  C:00AEH         PUBLIC        X_KEYMAP
  C:00BEH         PUBLIC        X_LONGFRAME
  C:01BEH         SYMBOL        FORMAT
  C:0186H         SYMBOL        FORMAT_STB
  C:01A5H         SYMBOL        FORMAT_TEST
  N:00EAH         SYMBOL        PADDING_DUMMY
  N:0000H         SYMBOL        PADDING_ZERO
  C:09D0H         SYMBOL        STB
  C:0178H         SYMBOL        STB_LONGFRAME
  C:00C4H         SYMBOL        STB_MAP
  C:211FH         SYMBOL        SYS_001H_01EH_011H
  C:2124H         SYMBOL        SYS_003H_001H
  C:2126H         SYMBOL        SYS_004H_010H_008H_0F7H
  C:2122H         SYMBOL        SYS_004H_019H
  C:211BH         SYMBOL        SYS_014H_015H
  C:212AH         SYMBOL        SYS_018H_0E7H_018H_018H
  C:211DH         SYMBOL        SYS_06EH_004H
  C:20E0H         SYMBOL        TEST_MODE_DB
  C:013CH         SYMBOL        TEST_MODE_MAP
  C:0A07H         SYMBOL        TV
  C:20DEH         SYMBOL        TV1
  C:0184H         SYMBOL        TV1_LONGFRAME
  C:017AH         SYMBOL        TV_LONGFRAME
  C:0100H         SYMBOL        TV_MAP
  N:0000H         SYMBOL        _00000000B
  N:0001H         SYMBOL        _00000001B
  N:0002H         SYMBOL        _00000010B
  N:0003H         SYMBOL        _00000011B
  N:0004H         SYMBOL        _00000100B
  N:0005H         SYMBOL        _00000101B
  N:0006H         SYMBOL        _00000110B
  N:0007H         SYMBOL        _00000111B
  N:0008H         SYMBOL        _00001000B
  N:0009H         SYMBOL        _00001001B
  N:000AH         SYMBOL        _00001010B
  N:000BH         SYMBOL        _00001011B
  N:000CH         SYMBOL        _00001100B
  N:000DH         SYMBOL        _00001101B
  N:000EH         SYMBOL        _00001110B
  N:000FH         SYMBOL        _00001111B
  N:0000H         SYMBOL        _0000_0000B
  N:0001H         SYMBOL        _0000_0001B
  N:0002H         SYMBOL        _0000_0010B
  N:0003H         SYMBOL        _0000_0011B
  N:0004H         SYMBOL        _0000_0100B
  N:0005H         SYMBOL        _0000_0101B
  N:0006H         SYMBOL        _0000_0110B
  N:0007H         SYMBOL        _0000_0111B
  N:0008H         SYMBOL        _0000_1000B
  N:0009H         SYMBOL        _0000_1001B
  N:000AH         SYMBOL        _0000_1010B
BL51 BANKED LINKER/LOCATER V6.22.2.0                                                  07/15/2022  09:34:05  PAGE 106


  N:000BH         SYMBOL        _0000_1011B
  N:000CH         SYMBOL        _0000_1100B
  N:000DH         SYMBOL        _0000_1101B
  N:000EH         SYMBOL        _0000_1110B
  N:000FH         SYMBOL        _0000_1111B
  N:0010H         SYMBOL        _00010000B
  N:0011H         SYMBOL        _00010001B
  N:0012H         SYMBOL        _00010010B
  N:0013H         SYMBOL        _00010011B
  N:0014H         SYMBOL        _00010100B
  N:0015H         SYMBOL        _00010101B
  N:0016H         SYMBOL        _00010110B
  N:0017H         SYMBOL        _00010111B
  N:0018H         SYMBOL        _00011000B
  N:0019H         SYMBOL        _00011001B
  N:001AH         SYMBOL        _00011010B
  N:001BH         SYMBOL        _00011011B
  N:001CH         SYMBOL        _00011100B
  N:001DH         SYMBOL        _00011101B
  N:001EH         SYMBOL        _00011110B
  N:001FH         SYMBOL        _00011111B
  N:0010H         SYMBOL        _0001_0000B
  N:0011H         SYMBOL        _0001_0001B
  N:0012H         SYMBOL        _0001_0010B
  N:0013H         SYMBOL        _0001_0011B
  N:0014H         SYMBOL        _0001_0100B
  N:0015H         SYMBOL        _0001_0101B
  N:0016H         SYMBOL        _0001_0110B
  N:0017H         SYMBOL        _0001_0111B
  N:0018H         SYMBOL        _0001_1000B
  N:0019H         SYMBOL        _0001_1001B
  N:001AH         SYMBOL        _0001_1010B
  N:001BH         SYMBOL        _0001_1011B
  N:001CH         SYMBOL        _0001_1100B
  N:001DH         SYMBOL        _0001_1101B
  N:001EH         SYMBOL        _0001_1110B
  N:001FH         SYMBOL        _0001_1111B
  N:0000H         SYMBOL        _000H
  N:0020H         SYMBOL        _00100000B
  N:0021H         SYMBOL        _00100001B
  N:0022H         SYMBOL        _00100010B
  N:0023H         SYMBOL        _00100011B
  N:0024H         SYMBOL        _00100100B
  N:0025H         SYMBOL        _00100101B
  N:0026H         SYMBOL        _00100110B
  N:0027H         SYMBOL        _00100111B
  N:0028H         SYMBOL        _00101000B
  N:0029H         SYMBOL        _00101001B
  N:002AH         SYMBOL        _00101010B
  N:002BH         SYMBOL        _00101011B
  N:002CH         SYMBOL        _00101100B
  N:002DH         SYMBOL        _00101101B
  N:002EH         SYMBOL        _00101110B
  N:002FH         SYMBOL        _00101111B
  N:0020H         SYMBOL        _0010_0000B
  N:0021H         SYMBOL        _0010_0001B
  N:0022H         SYMBOL        _0010_0010B
BL51 BANKED LINKER/LOCATER V6.22.2.0                                                  07/15/2022  09:34:05  PAGE 107


  N:0023H         SYMBOL        _0010_0011B
  N:0024H         SYMBOL        _0010_0100B
  N:0025H         SYMBOL        _0010_0101B
  N:0026H         SYMBOL        _0010_0110B
  N:0027H         SYMBOL        _0010_0111B
  N:0028H         SYMBOL        _0010_1000B
  N:0029H         SYMBOL        _0010_1001B
  N:002AH         SYMBOL        _0010_1010B
  N:002BH         SYMBOL        _0010_1011B
  N:002CH         SYMBOL        _0010_1100B
  N:002DH         SYMBOL        _0010_1101B
  N:002EH         SYMBOL        _0010_1110B
  N:002FH         SYMBOL        _0010_1111B
  N:0030H         SYMBOL        _00110000B
  N:0031H         SYMBOL        _00110001B
  N:0032H         SYMBOL        _00110010B
  N:0033H         SYMBOL        _00110011B
  N:0034H         SYMBOL        _00110100B
  N:0035H         SYMBOL        _00110101B
  N:0036H         SYMBOL        _00110110B
  N:0037H         SYMBOL        _00110111B
  N:0038H         SYMBOL        _00111000B
  N:0039H         SYMBOL        _00111001B
  N:003AH         SYMBOL        _00111010B
  N:003BH         SYMBOL        _00111011B
  N:003CH         SYMBOL        _00111100B
  N:003DH         SYMBOL        _00111101B
  N:003EH         SYMBOL        _00111110B
  N:003FH         SYMBOL        _00111111B
  N:0030H         SYMBOL        _0011_0000B
  N:0031H         SYMBOL        _0011_0001B
  N:0032H         SYMBOL        _0011_0010B
  N:0033H         SYMBOL        _0011_0011B
  N:0034H         SYMBOL        _0011_0100B
  N:0035H         SYMBOL        _0011_0101B
  N:0036H         SYMBOL        _0011_0110B
  N:0037H         SYMBOL        _0011_0111B
  N:0038H         SYMBOL        _0011_1000B
  N:0039H         SYMBOL        _0011_1001B
  N:003AH         SYMBOL        _0011_1010B
  N:003BH         SYMBOL        _0011_1011B
  N:003CH         SYMBOL        _0011_1100B
  N:003DH         SYMBOL        _0011_1101B
  N:003EH         SYMBOL        _0011_1110B
  N:003FH         SYMBOL        _0011_1111B
  N:0001H         SYMBOL        _001H
  N:0002H         SYMBOL        _002H
  N:0003H         SYMBOL        _003H
  N:0004H         SYMBOL        _004H
  N:0005H         SYMBOL        _005H
  N:0006H         SYMBOL        _006H
  N:0007H         SYMBOL        _007H
  N:0008H         SYMBOL        _008H
  N:0009H         SYMBOL        _009H
  N:000AH         SYMBOL        _00AH
  N:0000H         SYMBOL        _00B
  N:000BH         SYMBOL        _00BH
BL51 BANKED LINKER/LOCATER V6.22.2.0                                                  07/15/2022  09:34:05  PAGE 108


  N:000CH         SYMBOL        _00CH
  N:000DH         SYMBOL        _00DH
  N:000EH         SYMBOL        _00EH
  N:000FH         SYMBOL        _00FH
  N:0040H         SYMBOL        _01000000B
  N:0041H         SYMBOL        _01000001B
  N:0042H         SYMBOL        _01000010B
  N:0043H         SYMBOL        _01000011B
  N:0044H         SYMBOL        _01000100B
  N:0045H         SYMBOL        _01000101B
  N:0046H         SYMBOL        _01000110B
  N:0047H         SYMBOL        _01000111B
  N:0048H         SYMBOL        _01001000B
  N:0049H         SYMBOL        _01001001B
  N:004AH         SYMBOL        _01001010B
  N:004BH         SYMBOL        _01001011B
  N:004CH         SYMBOL        _01001100B
  N:004DH         SYMBOL        _01001101B
  N:004EH         SYMBOL        _01001110B
  N:004FH         SYMBOL        _01001111B
  N:0040H         SYMBOL        _0100_0000B
  N:0041H         SYMBOL        _0100_0001B
  N:0042H         SYMBOL        _0100_0010B
  N:0043H         SYMBOL        _0100_0011B
  N:0044H         SYMBOL        _0100_0100B
  N:0045H         SYMBOL        _0100_0101B
  N:0046H         SYMBOL        _0100_0110B
  N:0047H         SYMBOL        _0100_0111B
  N:0048H         SYMBOL        _0100_1000B
  N:0049H         SYMBOL        _0100_1001B
  N:004AH         SYMBOL        _0100_1010B
  N:004BH         SYMBOL        _0100_1011B
  N:004CH         SYMBOL        _0100_1100B
  N:004DH         SYMBOL        _0100_1101B
  N:004EH         SYMBOL        _0100_1110B
  N:004FH         SYMBOL        _0100_1111B
  N:0050H         SYMBOL        _01010000B
  N:0051H         SYMBOL        _01010001B
  N:0052H         SYMBOL        _01010010B
  N:0053H         SYMBOL        _01010011B
  N:0054H         SYMBOL        _01010100B
  N:0055H         SYMBOL        _01010101B
  N:0056H         SYMBOL        _01010110B
  N:0057H         SYMBOL        _01010111B
  N:0058H         SYMBOL        _01011000B
  N:0059H         SYMBOL        _01011001B
  N:005AH         SYMBOL        _01011010B
  N:005BH         SYMBOL        _01011011B
  N:005CH         SYMBOL        _01011100B
  N:005DH         SYMBOL        _01011101B
  N:005EH         SYMBOL        _01011110B
  N:005FH         SYMBOL        _01011111B
  N:0050H         SYMBOL        _0101_0000B
  N:0051H         SYMBOL        _0101_0001B
  N:0052H         SYMBOL        _0101_0010B
  N:0053H         SYMBOL        _0101_0011B
  N:0054H         SYMBOL        _0101_0100B
BL51 BANKED LINKER/LOCATER V6.22.2.0                                                  07/15/2022  09:34:05  PAGE 109


  N:0055H         SYMBOL        _0101_0101B
  N:0056H         SYMBOL        _0101_0110B
  N:0057H         SYMBOL        _0101_0111B
  N:0058H         SYMBOL        _0101_1000B
  N:0059H         SYMBOL        _0101_1001B
  N:005AH         SYMBOL        _0101_1010B
  N:005BH         SYMBOL        _0101_1011B
  N:005CH         SYMBOL        _0101_1100B
  N:005DH         SYMBOL        _0101_1101B
  N:005EH         SYMBOL        _0101_1110B
  N:005FH         SYMBOL        _0101_1111B
  N:0010H         SYMBOL        _010H
  N:0060H         SYMBOL        _01100000B
  N:0061H         SYMBOL        _01100001B
  N:0062H         SYMBOL        _01100010B
  N:0063H         SYMBOL        _01100011B
  N:0064H         SYMBOL        _01100100B
  N:0065H         SYMBOL        _01100101B
  N:0066H         SYMBOL        _01100110B
  N:0067H         SYMBOL        _01100111B
  N:0068H         SYMBOL        _01101000B
  N:0069H         SYMBOL        _01101001B
  N:006AH         SYMBOL        _01101010B
  N:006BH         SYMBOL        _01101011B
  N:006CH         SYMBOL        _01101100B
  N:006DH         SYMBOL        _01101101B
  N:006EH         SYMBOL        _01101110B
  N:006FH         SYMBOL        _01101111B
  N:0060H         SYMBOL        _0110_0000B
  N:0061H         SYMBOL        _0110_0001B
  N:0062H         SYMBOL        _0110_0010B
  N:0063H         SYMBOL        _0110_0011B
  N:0064H         SYMBOL        _0110_0100B
  N:0065H         SYMBOL        _0110_0101B
  N:0066H         SYMBOL        _0110_0110B
  N:0067H         SYMBOL        _0110_0111B
  N:0068H         SYMBOL        _0110_1000B
  N:0069H         SYMBOL        _0110_1001B
  N:006AH         SYMBOL        _0110_1010B
  N:006BH         SYMBOL        _0110_1011B
  N:006CH         SYMBOL        _0110_1100B
  N:006DH         SYMBOL        _0110_1101B
  N:006EH         SYMBOL        _0110_1110B
  N:006FH         SYMBOL        _0110_1111B
  N:0070H         SYMBOL        _01110000B
  N:0071H         SYMBOL        _01110001B
  N:0072H         SYMBOL        _01110010B
  N:0073H         SYMBOL        _01110011B
  N:0074H         SYMBOL        _01110100B
  N:0075H         SYMBOL        _01110101B
  N:0076H         SYMBOL        _01110110B
  N:0077H         SYMBOL        _01110111B
  N:0078H         SYMBOL        _01111000B
  N:0079H         SYMBOL        _01111001B
  N:007AH         SYMBOL        _01111010B
  N:007BH         SYMBOL        _01111011B
  N:007CH         SYMBOL        _01111100B
BL51 BANKED LINKER/LOCATER V6.22.2.0                                                  07/15/2022  09:34:05  PAGE 110


  N:007DH         SYMBOL        _01111101B
  N:007EH         SYMBOL        _01111110B
  N:007FH         SYMBOL        _01111111B
  N:0070H         SYMBOL        _0111_0000B
  N:0071H         SYMBOL        _0111_0001B
  N:0072H         SYMBOL        _0111_0010B
  N:0073H         SYMBOL        _0111_0011B
  N:0074H         SYMBOL        _0111_0100B
  N:0075H         SYMBOL        _0111_0101B
  N:0076H         SYMBOL        _0111_0110B
  N:0077H         SYMBOL        _0111_0111B
  N:0078H         SYMBOL        _0111_1000B
  N:0079H         SYMBOL        _0111_1001B
  N:007AH         SYMBOL        _0111_1010B
  N:007BH         SYMBOL        _0111_1011B
  N:007CH         SYMBOL        _0111_1100B
  N:007DH         SYMBOL        _0111_1101B
  N:007EH         SYMBOL        _0111_1110B
  N:007FH         SYMBOL        _0111_1111B
  N:0011H         SYMBOL        _011H
  N:0012H         SYMBOL        _012H
  N:0013H         SYMBOL        _013H
  N:0014H         SYMBOL        _014H
  N:0015H         SYMBOL        _015H
  N:0016H         SYMBOL        _016H
  N:0017H         SYMBOL        _017H
  N:0018H         SYMBOL        _018H
  N:0019H         SYMBOL        _019H
  N:001AH         SYMBOL        _01AH
  N:0001H         SYMBOL        _01B
  N:001BH         SYMBOL        _01BH
  N:001CH         SYMBOL        _01CH
  N:001DH         SYMBOL        _01DH
  N:001EH         SYMBOL        _01EH
  N:001FH         SYMBOL        _01FH
  N:0020H         SYMBOL        _020H
  N:0021H         SYMBOL        _021H
  N:0022H         SYMBOL        _022H
  N:0023H         SYMBOL        _023H
  N:0024H         SYMBOL        _024H
  N:0025H         SYMBOL        _025H
  N:0026H         SYMBOL        _026H
  N:0027H         SYMBOL        _027H
  N:0028H         SYMBOL        _028H
  N:0029H         SYMBOL        _029H
  N:002AH         SYMBOL        _02AH
  N:002BH         SYMBOL        _02BH
  N:002CH         SYMBOL        _02CH
  N:002DH         SYMBOL        _02DH
  N:002EH         SYMBOL        _02EH
  N:002FH         SYMBOL        _02FH
  N:0030H         SYMBOL        _030H
  N:0031H         SYMBOL        _031H
  N:0032H         SYMBOL        _032H
  N:0033H         SYMBOL        _033H
  N:0034H         SYMBOL        _034H
  N:0035H         SYMBOL        _035H
BL51 BANKED LINKER/LOCATER V6.22.2.0                                                  07/15/2022  09:34:05  PAGE 111


  N:0036H         SYMBOL        _036H
  N:0037H         SYMBOL        _037H
  N:0038H         SYMBOL        _038H
  N:0039H         SYMBOL        _039H
  N:003AH         SYMBOL        _03AH
  N:003BH         SYMBOL        _03BH
  N:003CH         SYMBOL        _03CH
  N:003DH         SYMBOL        _03DH
  N:003EH         SYMBOL        _03EH
  N:003FH         SYMBOL        _03FH
  N:0040H         SYMBOL        _040H
  N:0041H         SYMBOL        _041H
  N:0042H         SYMBOL        _042H
  N:0043H         SYMBOL        _043H
  N:0044H         SYMBOL        _044H
  N:0045H         SYMBOL        _045H
  N:0046H         SYMBOL        _046H
  N:0047H         SYMBOL        _047H
  N:0048H         SYMBOL        _048H
  N:0049H         SYMBOL        _049H
  N:004AH         SYMBOL        _04AH
  N:004BH         SYMBOL        _04BH
  N:004CH         SYMBOL        _04CH
  N:004DH         SYMBOL        _04DH
  N:004EH         SYMBOL        _04EH
  N:004FH         SYMBOL        _04FH
  N:0050H         SYMBOL        _050H
  N:0051H         SYMBOL        _051H
  N:0052H         SYMBOL        _052H
  N:0053H         SYMBOL        _053H
  N:0054H         SYMBOL        _054H
  N:0055H         SYMBOL        _055H
  N:0056H         SYMBOL        _056H
  N:0057H         SYMBOL        _057H
  N:0058H         SYMBOL        _058H
  N:0059H         SYMBOL        _059H
  N:005AH         SYMBOL        _05AH
  N:005BH         SYMBOL        _05BH
  N:005CH         SYMBOL        _05CH
  N:005DH         SYMBOL        _05DH
  N:005EH         SYMBOL        _05EH
  N:005FH         SYMBOL        _05FH
  N:0060H         SYMBOL        _060H
  N:0061H         SYMBOL        _061H
  N:0062H         SYMBOL        _062H
  N:0063H         SYMBOL        _063H
  N:0064H         SYMBOL        _064H
  N:0065H         SYMBOL        _065H
  N:0066H         SYMBOL        _066H
  N:0067H         SYMBOL        _067H
  N:0068H         SYMBOL        _068H
  N:0069H         SYMBOL        _069H
  N:006AH         SYMBOL        _06AH
  N:006BH         SYMBOL        _06BH
  N:006CH         SYMBOL        _06CH
  N:006DH         SYMBOL        _06DH
  N:006EH         SYMBOL        _06EH
BL51 BANKED LINKER/LOCATER V6.22.2.0                                                  07/15/2022  09:34:05  PAGE 112


  N:006FH         SYMBOL        _06FH
  N:0070H         SYMBOL        _070H
  N:0071H         SYMBOL        _071H
  N:0072H         SYMBOL        _072H
  N:0073H         SYMBOL        _073H
  N:0074H         SYMBOL        _074H
  N:0075H         SYMBOL        _075H
  N:0076H         SYMBOL        _076H
  N:0077H         SYMBOL        _077H
  N:0078H         SYMBOL        _078H
  N:0079H         SYMBOL        _079H
  N:007AH         SYMBOL        _07AH
  N:007BH         SYMBOL        _07BH
  N:007CH         SYMBOL        _07CH
  N:007DH         SYMBOL        _07DH
  N:007EH         SYMBOL        _07EH
  N:007FH         SYMBOL        _07FH
  N:0080H         SYMBOL        _080H
  N:0081H         SYMBOL        _081H
  N:0082H         SYMBOL        _082H
  N:0083H         SYMBOL        _083H
  N:0084H         SYMBOL        _084H
  N:0085H         SYMBOL        _085H
  N:0086H         SYMBOL        _086H
  N:0087H         SYMBOL        _087H
  N:0088H         SYMBOL        _088H
  N:0089H         SYMBOL        _089H
  N:008AH         SYMBOL        _08AH
  N:008BH         SYMBOL        _08BH
  N:008CH         SYMBOL        _08CH
  N:008DH         SYMBOL        _08DH
  N:008EH         SYMBOL        _08EH
  N:008FH         SYMBOL        _08FH
  N:0090H         SYMBOL        _090H
  N:0091H         SYMBOL        _091H
  N:0092H         SYMBOL        _092H
  N:0093H         SYMBOL        _093H
  N:0094H         SYMBOL        _094H
  N:0095H         SYMBOL        _095H
  N:0096H         SYMBOL        _096H
  N:0097H         SYMBOL        _097H
  N:0098H         SYMBOL        _098H
  N:0099H         SYMBOL        _099H
  N:009AH         SYMBOL        _09AH
  N:009BH         SYMBOL        _09BH
  N:009CH         SYMBOL        _09CH
  N:009DH         SYMBOL        _09DH
  N:009EH         SYMBOL        _09EH
  N:009FH         SYMBOL        _09FH
  N:00A0H         SYMBOL        _0A0H
  N:00A1H         SYMBOL        _0A1H
  N:00A2H         SYMBOL        _0A2H
  N:00A3H         SYMBOL        _0A3H
  N:00A4H         SYMBOL        _0A4H
  N:00A5H         SYMBOL        _0A5H
  N:00A6H         SYMBOL        _0A6H
  N:00A7H         SYMBOL        _0A7H
BL51 BANKED LINKER/LOCATER V6.22.2.0                                                  07/15/2022  09:34:05  PAGE 113


  N:00A8H         SYMBOL        _0A8H
  N:00A9H         SYMBOL        _0A9H
  N:00AAH         SYMBOL        _0AAH
  N:00ABH         SYMBOL        _0ABH
  N:00ACH         SYMBOL        _0ACH
  N:00ADH         SYMBOL        _0ADH
  N:00AEH         SYMBOL        _0AEH
  N:00AFH         SYMBOL        _0AFH
  N:00B0H         SYMBOL        _0B0H
  N:00B1H         SYMBOL        _0B1H
  N:00B2H         SYMBOL        _0B2H
  N:00B3H         SYMBOL        _0B3H
  N:00B4H         SYMBOL        _0B4H
  N:00B5H         SYMBOL        _0B5H
  N:00B6H         SYMBOL        _0B6H
  N:00B7H         SYMBOL        _0B7H
  N:00B8H         SYMBOL        _0B8H
  N:00B9H         SYMBOL        _0B9H
  N:00BAH         SYMBOL        _0BAH
  N:00BBH         SYMBOL        _0BBH
  N:00BCH         SYMBOL        _0BCH
  N:00BDH         SYMBOL        _0BDH
  N:00BEH         SYMBOL        _0BEH
  N:00BFH         SYMBOL        _0BFH
  N:00C0H         SYMBOL        _0C0H
  N:00C1H         SYMBOL        _0C1H
  N:00C2H         SYMBOL        _0C2H
  N:00C3H         SYMBOL        _0C3H
  N:00C4H         SYMBOL        _0C4H
  N:00C5H         SYMBOL        _0C5H
  N:00C6H         SYMBOL        _0C6H
  N:00C7H         SYMBOL        _0C7H
  N:00C8H         SYMBOL        _0C8H
  N:00C9H         SYMBOL        _0C9H
  N:00CAH         SYMBOL        _0CAH
  N:00CBH         SYMBOL        _0CBH
  N:00CCH         SYMBOL        _0CCH
  N:00CDH         SYMBOL        _0CDH
  N:00CEH         SYMBOL        _0CEH
  N:00CFH         SYMBOL        _0CFH
  N:00D0H         SYMBOL        _0D0H
  N:00D1H         SYMBOL        _0D1H
  N:00D2H         SYMBOL        _0D2H
  N:00D3H         SYMBOL        _0D3H
  N:00D4H         SYMBOL        _0D4H
  N:00D5H         SYMBOL        _0D5H
  N:00D6H         SYMBOL        _0D6H
  N:00D7H         SYMBOL        _0D7H
  N:00D8H         SYMBOL        _0D8H
  N:00D9H         SYMBOL        _0D9H
  N:00DAH         SYMBOL        _0DAH
  N:00DBH         SYMBOL        _0DBH
  N:00DCH         SYMBOL        _0DCH
  N:00DDH         SYMBOL        _0DDH
  N:00DEH         SYMBOL        _0DEH
  N:00DFH         SYMBOL        _0DFH
  N:00E0H         SYMBOL        _0E0H
BL51 BANKED LINKER/LOCATER V6.22.2.0                                                  07/15/2022  09:34:05  PAGE 114


  N:00E1H         SYMBOL        _0E1H
  N:00E2H         SYMBOL        _0E2H
  N:00E3H         SYMBOL        _0E3H
  N:00E4H         SYMBOL        _0E4H
  N:00E5H         SYMBOL        _0E5H
  N:00E6H         SYMBOL        _0E6H
  N:00E7H         SYMBOL        _0E7H
  N:00E8H         SYMBOL        _0E8H
  N:00E9H         SYMBOL        _0E9H
  N:00EAH         SYMBOL        _0EAH
  N:00EBH         SYMBOL        _0EBH
  N:00ECH         SYMBOL        _0ECH
  N:00EDH         SYMBOL        _0EDH
  N:00EEH         SYMBOL        _0EEH
  N:00EFH         SYMBOL        _0EFH
  N:00F0H         SYMBOL        _0F0H
  N:00F1H         SYMBOL        _0F1H
  N:00F2H         SYMBOL        _0F2H
  N:00F3H         SYMBOL        _0F3H
  N:00F4H         SYMBOL        _0F4H
  N:00F5H         SYMBOL        _0F5H
  N:00F6H         SYMBOL        _0F6H
  N:00F7H         SYMBOL        _0F7H
  N:00F8H         SYMBOL        _0F8H
  N:00F9H         SYMBOL        _0F9H
  N:00FAH         SYMBOL        _0FAH
  N:00FBH         SYMBOL        _0FBH
  N:00FCH         SYMBOL        _0FCH
  N:00FDH         SYMBOL        _0FDH
  N:00FEH         SYMBOL        _0FEH
  N:00FFH         SYMBOL        _0FFH
  N:0080H         SYMBOL        _10000000B
  N:0081H         SYMBOL        _10000001B
  N:0082H         SYMBOL        _10000010B
  N:0083H         SYMBOL        _10000011B
  N:0084H         SYMBOL        _10000100B
  N:0085H         SYMBOL        _10000101B
  N:0086H         SYMBOL        _10000110B
  N:0087H         SYMBOL        _10000111B
  N:0088H         SYMBOL        _10001000B
  N:0089H         SYMBOL        _10001001B
  N:008AH         SYMBOL        _10001010B
  N:008BH         SYMBOL        _10001011B
  N:008CH         SYMBOL        _10001100B
  N:008DH         SYMBOL        _10001101B
  N:008EH         SYMBOL        _10001110B
  N:008FH         SYMBOL        _10001111B
  N:0080H         SYMBOL        _1000_0000B
  N:0081H         SYMBOL        _1000_0001B
  N:0082H         SYMBOL        _1000_0010B
  N:0083H         SYMBOL        _1000_0011B
  N:0084H         SYMBOL        _1000_0100B
  N:0085H         SYMBOL        _1000_0101B
  N:0086H         SYMBOL        _1000_0110B
  N:0087H         SYMBOL        _1000_0111B
  N:0088H         SYMBOL        _1000_1000B
  N:0089H         SYMBOL        _1000_1001B
BL51 BANKED LINKER/LOCATER V6.22.2.0                                                  07/15/2022  09:34:05  PAGE 115


  N:008AH         SYMBOL        _1000_1010B
  N:008BH         SYMBOL        _1000_1011B
  N:008CH         SYMBOL        _1000_1100B
  N:008DH         SYMBOL        _1000_1101B
  N:008EH         SYMBOL        _1000_1110B
  N:008FH         SYMBOL        _1000_1111B
  N:0090H         SYMBOL        _10010000B
  N:0091H         SYMBOL        _10010001B
  N:0092H         SYMBOL        _10010010B
  N:0093H         SYMBOL        _10010011B
  N:0094H         SYMBOL        _10010100B
  N:0095H         SYMBOL        _10010101B
  N:0096H         SYMBOL        _10010110B
  N:0097H         SYMBOL        _10010111B
  N:0098H         SYMBOL        _10011000B
  N:0099H         SYMBOL        _10011001B
  N:009AH         SYMBOL        _10011010B
  N:009BH         SYMBOL        _10011011B
  N:009CH         SYMBOL        _10011100B
  N:009DH         SYMBOL        _10011101B
  N:009EH         SYMBOL        _10011110B
  N:009FH         SYMBOL        _10011111B
  N:0090H         SYMBOL        _1001_0000B
  N:0091H         SYMBOL        _1001_0001B
  N:0092H         SYMBOL        _1001_0010B
  N:0093H         SYMBOL        _1001_0011B
  N:0094H         SYMBOL        _1001_0100B
  N:0095H         SYMBOL        _1001_0101B
  N:0096H         SYMBOL        _1001_0110B
  N:0097H         SYMBOL        _1001_0111B
  N:0098H         SYMBOL        _1001_1000B
  N:0099H         SYMBOL        _1001_1001B
  N:009AH         SYMBOL        _1001_1010B
  N:009BH         SYMBOL        _1001_1011B
  N:009CH         SYMBOL        _1001_1100B
  N:009DH         SYMBOL        _1001_1101B
  N:009EH         SYMBOL        _1001_1110B
  N:009FH         SYMBOL        _1001_1111B
  N:00A0H         SYMBOL        _10100000B
  N:00A1H         SYMBOL        _10100001B
  N:00A2H         SYMBOL        _10100010B
  N:00A3H         SYMBOL        _10100011B
  N:00A4H         SYMBOL        _10100100B
  N:00A5H         SYMBOL        _10100101B
  N:00A6H         SYMBOL        _10100110B
  N:00A7H         SYMBOL        _10100111B
  N:00A8H         SYMBOL        _10101000B
  N:00A9H         SYMBOL        _10101001B
  N:00AAH         SYMBOL        _10101010B
  N:00ABH         SYMBOL        _10101011B
  N:00ACH         SYMBOL        _10101100B
  N:00ADH         SYMBOL        _10101101B
  N:00AEH         SYMBOL        _10101110B
  N:00AFH         SYMBOL        _10101111B
  N:00A0H         SYMBOL        _1010_0000B
  N:00A1H         SYMBOL        _1010_0001B
  N:00A2H         SYMBOL        _1010_0010B
BL51 BANKED LINKER/LOCATER V6.22.2.0                                                  07/15/2022  09:34:05  PAGE 116


  N:00A3H         SYMBOL        _1010_0011B
  N:00A4H         SYMBOL        _1010_0100B
  N:00A5H         SYMBOL        _1010_0101B
  N:00A6H         SYMBOL        _1010_0110B
  N:00A7H         SYMBOL        _1010_0111B
  N:00A8H         SYMBOL        _1010_1000B
  N:00A9H         SYMBOL        _1010_1001B
  N:00AAH         SYMBOL        _1010_1010B
  N:00ABH         SYMBOL        _1010_1011B
  N:00ACH         SYMBOL        _1010_1100B
  N:00ADH         SYMBOL        _1010_1101B
  N:00AEH         SYMBOL        _1010_1110B
  N:00AFH         SYMBOL        _1010_1111B
  N:00B0H         SYMBOL        _10110000B
  N:00B1H         SYMBOL        _10110001B
  N:00B2H         SYMBOL        _10110010B
  N:00B3H         SYMBOL        _10110011B
  N:00B4H         SYMBOL        _10110100B
  N:00B5H         SYMBOL        _10110101B
  N:00B6H         SYMBOL        _10110110B
  N:00B7H         SYMBOL        _10110111B
  N:00B8H         SYMBOL        _10111000B
  N:00B9H         SYMBOL        _10111001B
  N:00BAH         SYMBOL        _10111010B
  N:00BBH         SYMBOL        _10111011B
  N:00BCH         SYMBOL        _10111100B
  N:00BDH         SYMBOL        _10111101B
  N:00BEH         SYMBOL        _10111110B
  N:00BFH         SYMBOL        _10111111B
  N:00B0H         SYMBOL        _1011_0000B
  N:00B1H         SYMBOL        _1011_0001B
  N:00B2H         SYMBOL        _1011_0010B
  N:00B3H         SYMBOL        _1011_0011B
  N:00B4H         SYMBOL        _1011_0100B
  N:00B5H         SYMBOL        _1011_0101B
  N:00B6H         SYMBOL        _1011_0110B
  N:00B7H         SYMBOL        _1011_0111B
  N:00B8H         SYMBOL        _1011_1000B
  N:00B9H         SYMBOL        _1011_1001B
  N:00BAH         SYMBOL        _1011_1010B
  N:00BBH         SYMBOL        _1011_1011B
  N:00BCH         SYMBOL        _1011_1100B
  N:00BDH         SYMBOL        _1011_1101B
  N:00BEH         SYMBOL        _1011_1110B
  N:00BFH         SYMBOL        _1011_1111B
  N:0002H         SYMBOL        _10B
  N:00C0H         SYMBOL        _11000000B
  N:00C1H         SYMBOL        _11000001B
  N:00C2H         SYMBOL        _11000010B
  N:00C3H         SYMBOL        _11000011B
  N:00C4H         SYMBOL        _11000100B
  N:00C5H         SYMBOL        _11000101B
  N:00C6H         SYMBOL        _11000110B
  N:00C7H         SYMBOL        _11000111B
  N:00C8H         SYMBOL        _11001000B
  N:00C9H         SYMBOL        _11001001B
  N:00CAH         SYMBOL        _11001010B
BL51 BANKED LINKER/LOCATER V6.22.2.0                                                  07/15/2022  09:34:05  PAGE 117


  N:00CBH         SYMBOL        _11001011B
  N:00CCH         SYMBOL        _11001100B
  N:00CDH         SYMBOL        _11001101B
  N:00CEH         SYMBOL        _11001110B
  N:00CFH         SYMBOL        _11001111B
  N:00C0H         SYMBOL        _1100_0000B
  N:00C1H         SYMBOL        _1100_0001B
  N:00C2H         SYMBOL        _1100_0010B
  N:00C3H         SYMBOL        _1100_0011B
  N:00C4H         SYMBOL        _1100_0100B
  N:00C5H         SYMBOL        _1100_0101B
  N:00C6H         SYMBOL        _1100_0110B
  N:00C7H         SYMBOL        _1100_0111B
  N:00C8H         SYMBOL        _1100_1000B
  N:00C9H         SYMBOL        _1100_1001B
  N:00CAH         SYMBOL        _1100_1010B
  N:00CBH         SYMBOL        _1100_1011B
  N:00CCH         SYMBOL        _1100_1100B
  N:00CDH         SYMBOL        _1100_1101B
  N:00CEH         SYMBOL        _1100_1110B
  N:00CFH         SYMBOL        _1100_1111B
  N:00D0H         SYMBOL        _11010000B
  N:00D1H         SYMBOL        _11010001B
  N:00D2H         SYMBOL        _11010010B
  N:00D3H         SYMBOL        _11010011B
  N:00D4H         SYMBOL        _11010100B
  N:00D5H         SYMBOL        _11010101B
  N:00D6H         SYMBOL        _11010110B
  N:00D7H         SYMBOL        _11010111B
  N:00D8H         SYMBOL        _11011000B
  N:00D9H         SYMBOL        _11011001B
  N:00DAH         SYMBOL        _11011010B
  N:00DBH         SYMBOL        _11011011B
  N:00DCH         SYMBOL        _11011100B
  N:00DDH         SYMBOL        _11011101B
  N:00DEH         SYMBOL        _11011110B
  N:00DFH         SYMBOL        _11011111B
  N:00D0H         SYMBOL        _1101_0000B
  N:00D1H         SYMBOL        _1101_0001B
  N:00D2H         SYMBOL        _1101_0010B
  N:00D3H         SYMBOL        _1101_0011B
  N:00D4H         SYMBOL        _1101_0100B
  N:00D5H         SYMBOL        _1101_0101B
  N:00D6H         SYMBOL        _1101_0110B
  N:00D7H         SYMBOL        _1101_0111B
  N:00D8H         SYMBOL        _1101_1000B
  N:00D9H         SYMBOL        _1101_1001B
  N:00DAH         SYMBOL        _1101_1010B
  N:00DBH         SYMBOL        _1101_1011B
  N:00DCH         SYMBOL        _1101_1100B
  N:00DDH         SYMBOL        _1101_1101B
  N:00DEH         SYMBOL        _1101_1110B
  N:00DFH         SYMBOL        _1101_1111B
  N:00E0H         SYMBOL        _11100000B
  N:00E1H         SYMBOL        _11100001B
  N:00E2H         SYMBOL        _11100010B
  N:00E3H         SYMBOL        _11100011B
BL51 BANKED LINKER/LOCATER V6.22.2.0                                                  07/15/2022  09:34:05  PAGE 118


  N:00E4H         SYMBOL        _11100100B
  N:00E5H         SYMBOL        _11100101B
  N:00E6H         SYMBOL        _11100110B
  N:00E7H         SYMBOL        _11100111B
  N:00E8H         SYMBOL        _11101000B
  N:00E9H         SYMBOL        _11101001B
  N:00EAH         SYMBOL        _11101010B
  N:00EBH         SYMBOL        _11101011B
  N:00ECH         SYMBOL        _11101100B
  N:00EDH         SYMBOL        _11101101B
  N:00EEH         SYMBOL        _11101110B
  N:00EFH         SYMBOL        _11101111B
  N:00E0H         SYMBOL        _1110_0000B
  N:00E1H         SYMBOL        _1110_0001B
  N:00E2H         SYMBOL        _1110_0010B
  N:00E3H         SYMBOL        _1110_0011B
  N:00E4H         SYMBOL        _1110_0100B
  N:00E5H         SYMBOL        _1110_0101B
  N:00E6H         SYMBOL        _1110_0110B
  N:00E7H         SYMBOL        _1110_0111B
  N:00E8H         SYMBOL        _1110_1000B
  N:00E9H         SYMBOL        _1110_1001B
  N:00EAH         SYMBOL        _1110_1010B
  N:00EBH         SYMBOL        _1110_1011B
  N:00ECH         SYMBOL        _1110_1100B
  N:00EDH         SYMBOL        _1110_1101B
  N:00EEH         SYMBOL        _1110_1110B
  N:00EFH         SYMBOL        _1110_1111B
  N:00F0H         SYMBOL        _11110000B
  N:00F1H         SYMBOL        _11110001B
  N:00F2H         SYMBOL        _11110010B
  N:00F3H         SYMBOL        _11110011B
  N:00F4H         SYMBOL        _11110100B
  N:00F5H         SYMBOL        _11110101B
  N:00F6H         SYMBOL        _11110110B
  N:00F7H         SYMBOL        _11110111B
  N:00F8H         SYMBOL        _11111000B
  N:00F9H         SYMBOL        _11111001B
  N:00FAH         SYMBOL        _11111010B
  N:00FBH         SYMBOL        _11111011B
  N:00FCH         SYMBOL        _11111100B
  N:00FDH         SYMBOL        _11111101B
  N:00FEH         SYMBOL        _11111110B
  N:00FFH         SYMBOL        _11111111B
  N:00F0H         SYMBOL        _1111_0000B
  N:00F1H         SYMBOL        _1111_0001B
  N:00F2H         SYMBOL        _1111_0010B
  N:00F3H         SYMBOL        _1111_0011B
  N:00F4H         SYMBOL        _1111_0100B
  N:00F5H         SYMBOL        _1111_0101B
  N:00F6H         SYMBOL        _1111_0110B
  N:00F7H         SYMBOL        _1111_0111B
  N:00F8H         SYMBOL        _1111_1000B
  N:00F9H         SYMBOL        _1111_1001B
  N:00FAH         SYMBOL        _1111_1010B
  N:00FBH         SYMBOL        _1111_1011B
  N:00FCH         SYMBOL        _1111_1100B
BL51 BANKED LINKER/LOCATER V6.22.2.0                                                  07/15/2022  09:34:05  PAGE 119


  N:00FDH         SYMBOL        _1111_1101B
  N:00FEH         SYMBOL        _1111_1110B
  N:00FFH         SYMBOL        _1111_1111B
  N:0003H         SYMBOL        _11B
  -------         ENDMOD        DATA

  -------         MODULE        ?C?CLDPTR
  C:408AH         PUBLIC        ?C?CLDPTR
  -------         ENDMOD        ?C?CLDPTR

  -------         MODULE        ?C?CLDOPTR
  C:40A3H         PUBLIC        ?C?CLDOPTR
  -------         ENDMOD        ?C?CLDOPTR

  -------         MODULE        ?C?CSTPTR
  C:40D0H         PUBLIC        ?C?CSTPTR
  -------         ENDMOD        ?C?CSTPTR

  -------         MODULE        ?C?CSTOPTR
  C:40E2H         PUBLIC        ?C?CSTOPTR
  -------         ENDMOD        ?C?CSTOPTR

  -------         MODULE        ?C?IMUL
  C:4104H         PUBLIC        ?C?IMUL
  -------         ENDMOD        ?C?IMUL

  -------         MODULE        ?C?UIDIV
  C:4116H         PUBLIC        ?C?UIDIV
  -------         ENDMOD        ?C?UIDIV

  -------         MODULE        ?C?SIDIV
  C:416BH         PUBLIC        ?C?SIDIV
  -------         ENDMOD        ?C?SIDIV

  -------         MODULE        ?C?IILDX
  C:41A1H         PUBLIC        ?C?IILDX
  -------         ENDMOD        ?C?IILDX

  -------         MODULE        ?C?ILDPTR
  C:41B7H         PUBLIC        ?C?ILDPTR
  -------         ENDMOD        ?C?ILDPTR

  -------         MODULE        ?C?IILDPTR
  C:41E2H         PUBLIC        ?C?IILDPTR
  -------         ENDMOD        ?C?IILDPTR

  -------         MODULE        ?C?ISTPTR
  C:421AH         PUBLIC        ?C?ISTPTR
  -------         ENDMOD        ?C?ISTPTR

  -------         MODULE        ?C?LMUL
  C:4239H         PUBLIC        ?C?LMUL
  -------         ENDMOD        ?C?LMUL

  -------         MODULE        ?C?ULDIV
  C:42C4H         PUBLIC        ?C?ULDIV
  -------         ENDMOD        ?C?ULDIV
BL51 BANKED LINKER/LOCATER V6.22.2.0                                                  07/15/2022  09:34:05  PAGE 120



  -------         MODULE        ?C?ULCMP
  C:4356H         PUBLIC        ?C?ULCMP
  -------         ENDMOD        ?C?ULCMP

  -------         MODULE        ?C?ULSHR
  C:4367H         PUBLIC        ?C?ULSHR
  -------         ENDMOD        ?C?ULSHR

  -------         MODULE        ?C?LSHL
  C:437AH         PUBLIC        ?C?LSHL
  -------         ENDMOD        ?C?LSHL

  -------         MODULE        ?C?LLDPTR
  C:438DH         PUBLIC        ?C?LLDPTR
  -------         ENDMOD        ?C?LLDPTR

  -------         MODULE        ?C?LSTPTR
  C:43ADH         PUBLIC        ?C?LSTPTR
  -------         ENDMOD        ?C?LSTPTR

  -------         MODULE        ?C?LSTXDATA
  C:43C7H         PUBLIC        ?C?LSTXDATA
  -------         ENDMOD        ?C?LSTXDATA

  -------         MODULE        ?C?LCASE
  C:43D3H         PUBLIC        ?C?LCASE
  -------         ENDMOD        ?C?LCASE

  -------         MODULE        ?C?ICALL
  C:440DH         PUBLIC        ?C?ICALL
  C:4411H         PUBLIC        ?C?ICALL2
  -------         ENDMOD        ?C?ICALL

  -------         MODULE        ?C?LLDIDATA
  C:4413H         PUBLIC        ?C?LLDIDATA
  -------         ENDMOD        ?C?LLDIDATA

  -------         MODULE        ?C?LLDXDATA
  C:441FH         PUBLIC        ?C?LLDXDATA
  -------         ENDMOD        ?C?LLDXDATA

  -------         MODULE        ?C?LLDPDATA
  C:442BH         PUBLIC        ?C?LLDPDATA
  -------         ENDMOD        ?C?LLDPDATA

  -------         MODULE        ?C?LLDCODE
  C:4437H         PUBLIC        ?C?LLDCODE
  -------         ENDMOD        ?C?LLDCODE

  -------         MODULE        ?C?LSTIDATA
  C:4447H         PUBLIC        ?C?LSTIDATA
  -------         ENDMOD        ?C?LSTIDATA

  -------         MODULE        ?C?LSTPDATA
  C:4453H         PUBLIC        ?C?LSTPDATA
  -------         ENDMOD        ?C?LSTPDATA
BL51 BANKED LINKER/LOCATER V6.22.2.0                                                  07/15/2022  09:34:05  PAGE 121



*** WARNING L13: RECURSIVE CALL TO SEGMENT
    SEGMENT: ?CO?ROM
    CALLER:  ?PR?GET_MAP_POINTER?COMMON

*** WARNING L13: RECURSIVE CALL TO SEGMENT
    SEGMENT: ?CO?ROM
    CALLER:  ?PR?_LOADCUSTDATAWITHFORMAT?COMMON

*** WARNING L13: RECURSIVE CALL TO SEGMENT
    SEGMENT: ?CO?ROM
    CALLER:  ?PR?SEND_UR_READY?COMMON

*** WARNING L13: RECURSIVE CALL TO SEGMENT
    SEGMENT: ?PR?_GETKEY?COMMON
    CALLER:  ?PR?GETSAMEKEY_WAIT?FUNCTION_KEY

*** WARNING L13: RECURSIVE CALL TO SEGMENT
    SEGMENT: ?PR?_GETKEY?COMMON
    CALLER:  ?PR?_PULSEOUT_ABOVE_NFRAME?FUNCTION_KEY

Program Size: data=131.2 xdata=767 code=31879
LINK/LOCATE RUN COMPLETE.  5 WARNING(S),  0 ERROR(S)
